0000: 16 00 02       lbra     0x05

0003: 34 6D          pshs     u,y,dp,b,cc
0005: 32 8C F8       leas     -0x08,pc ; (0x0000)
0008: 17 00 8D       lbsr     0x0098
000B: 17 00 A6       lbsr     0x00B4
000E: 86 3A          lda      #3A
0010: 97 DF          sta      0x00DF
0012: 86 42          lda      #42
0014: 97 E0          sta      0x00E0
0016: 86 50          lda      #50
0018: 97 E1          sta      0x00E1
001A: 17 0B 22       lbsr     0x0B3F
001D: 17 03 81       lbsr     0x03A1
0020: 17 09 19       lbsr     0x093C
0023: 17 07 4D       lbsr     0x0773
0026: 30 8C 09       leax     0x09,pc ; (0x0032)
0029: 17 01 EE       lbsr     0x021A
002C: 17 01 EB       lbsr     0x021A
002F: 16 14 E4       lbra     0x1516

0032: 44             lsra     
0033: 49             rola     
0034: 53             comb     
0035: 4B             Illegal Opcode, changing to data
0036: 20 45          bra      0x7D

0038: 44             lsra     
0039: 54             lsrb     
003A: 41             Illegal Opcode, changing to data
003B: 53             comb     
003C: 4D             tsta     
003D: 2B 20          bmi      0x5F
003F: 30 31          leax     -0x0F,y
0041: 2E 30          bgt      0x73
0043: 30 2E          leax     0x0E,y
0045: 30 B0          leax     [,y+]
0047: 43             coma     
0048: 4F             clra     
0049: 50             negb     
004A: 59             rolb     
004B: 52             Illegal Opcode, changing to data
004C: 49             rola     
004D: 47             asra     
004E: 48             asla     
004F: 54             lsrb     
0050: 20 28          bra      0x7A

0052: 43             coma     
0053: 29 20          bvs      0x75
0055: 31 39          leay     -0x07,y
0057: 38             Illegal Opcode, changing to data
0058: 33 20          leau     0x00,y
005A: 42             Illegal Opcode, changing to data
005B: 59             rolb     
005C: 20 4D          bra      0x00AB

005E: 49             rola     
005F: 43             coma     
0060: 52             Illegal Opcode, changing to data
0061: 4F             clra     
0062: 53             comb     
0063: 4F             clra     
0064: 46             rora     
0065: D4 00          andb     0x00
0067: 00 00          neg      0x00
0069: 00 00          neg      0x00
006B: 00 00          neg      0x00
006D: 00 00          neg      0x00
006F: 00 00          neg      0x00
0071: 00 00          neg      0x00
0073: 00 00          neg      0x00
0075: 00 00          neg      0x00
0077: 00 00          neg      0x00
0079: 00 00          neg      0x00
007B: 00 00          neg      0x00
007D: 00 00          neg      0x00
007F: 00 00          neg      0x00
0081: 00 00          neg      0x00
0083: 00 00          neg      0x00
0085: 00 00          neg      0x00
0087: 00 00          neg      0x00
0089: 00 00          neg      0x00
008B: 00 00          neg      0x00
008D: 00 00          neg      0x00
008F: 31 32          leay     -0x0E,y
0091: 2D 4A          blt      0x00DD
0093: 55             Illegal Opcode, changing to data
0094: 4E             Illegal Opcode, changing to data
0095: 2D 38          blt      0x00CF
0097: B3 34 16       subd     0x3416
009A: 30 8D FF 62    leax     0xFF62,pc ; (0x10000)
009E: 1F 10          tfr      x,d
00A0: 80 05          suba     #05
00A2: 1F 8B          tfr      a,dp
00A4: 35 96          puls     a,b,x,pc ;(pul? pc=rts)

00A6: 34 07          pshs     b,a,cc
00A8: 1E 03          exg      d,u
00AA: 33 8D FF 52    leau     0xFF52,pc ; (0x10000)
00AE: 33 CB          leau     d,u
00B0: 35 07          puls     cc,a,b
00B2: 6E C4          jmp      ,u

00B4: 1F B8          tfr      dp,a
00B6: 5F             clrb     
00B7: 1F 01          tfr      d,x
00B9: 6F 80          clr      ,x+
00BB: 5A             decb     
00BC: 26 FB          bne      0x00B9
00BE: 39             rts      

00BF: 86 20          lda      #20
00C1: 81 4F          cmpa     #4F
00C3: 34 12          pshs     x,a
00C5: 9E 13          ldx      0x13
00C7: 43             coma     
00C8: 86 0D          lda      #0D
00CA: 0D 12          tst      0x12
00CC: 27 14          beq      0x00E2
00CE: 0A 12          dec      0x12
00D0: A6 80          lda      ,x+
00D2: 9F 13          stx      0x13
00D4: 81 09          cmpa     #09
00D6: 26 02          bne      0x00DA
00D8: 86 20          lda      #20
00DA: A1 E4          cmpa     ,s
00DC: 27 E7          beq      0x00C5
00DE: A6 1F          lda      -0x01,x
00E0: 8D 08          bsr      0x00EA
00E2: 32 61          leas     0x01,s
00E4: 34 01          pshs     cc
00E6: 97 05          sta      0x05
00E8: 35 91          puls     cc,x,pc ;(pul? pc=rts)

00EA: 81 30          cmpa     #30
00EC: 25 08          bcs      0x00F6
00EE: 81 3A          cmpa     #3A
00F0: 49             rola     
00F1: 88 01          eora     #01
00F3: 46             rora     
00F4: 1C FB          andcc    #FB
00F6: 39             rts      

00F7: 81 41          cmpa     #41
00F9: 25 FB          bcs      0x00F6
00FB: 81 5B          cmpa     #5B
00FD: 20 F1          bra      0x00F0

00FF: 8D BE          bsr      0x00BF
0101: 27 F3          beq      0x00F6
0103: 34 10          pshs     x
0105: 0C 12          inc      0x12
0107: 9E 13          ldx      0x13
0109: 30 1F          leax     -0x01,x
010B: 9F 13          stx      0x13
010D: 35 90          puls     x,pc ;(pul? pc=rts)

010F: 34 04          pshs     b
0111: D6 15          ldb      0x15
0113: 27 05          beq      0x011A
0115: 8D EC          bsr      0x0103
0117: 5A             decb     
0118: 26 FB          bne      0x0115
011A: 35 84          puls     b,pc ;(pul? pc=rts)

011C: C6 06          ldb      #06
011E: 86 5F          lda      #5F
0120: 0D D7          tst      0x00D7
0122: 10 26 0D 4A    lbne     0x0E70
0126: 34 04          pshs     b
0128: 8D 22          bsr      0x014C
012A: 35 04          puls     b
012C: 27 0F          beq      0x013D
012E: 81 00          cmpa     #00
0130: 26 09          bne      0x013B
0132: D6 15          ldb      0x15
0134: C1 08          cmpb     #08
0136: 22 0C          bhi      0x0144
0138: 4F             clra     
0139: 5D             tstb     
013A: 39             rts      

013B: 8D D2          bsr      0x010F
013D: 30 8C 06       leax     0x06,pc ; (0x0146)
0140: 5D             tstb     
0141: 1C FE          andcc    #FE
0143: 39             rts      

0144: 43             coma     
0145: 39             rts      

0146: 4E             Illegal Opcode, changing to data
0147: 4F             clra     
0148: 4E             Illegal Opcode, changing to data
0149: 41             Illegal Opcode, changing to data
014A: 4D             tsta     
014B: 45             Illegal Opcode, changing to data
014C: 8D B1          bsr      0x00FF
014E: 9E 13          ldx      0x13
0150: CC 01 02       ldd      #0x0102
0153: 97 15          sta      0x15
0155: 17 FF 6A       lbsr     0x00C2
0158: 27 38          beq      0x0192
015A: 24 21          bcc      0x017D
015C: 8D 99          bsr      0x00F7
015E: 1E 89          exg      a,b
0160: 25 30          bcs      0x0192
0162: 8D 19          bsr      0x017D
0164: 34 30          pshs     y,x
0166: 31 8C 3C       leay     0x3C,pc ; (0x01A5)
0169: 86 01          lda      #01
016B: D6 15          ldb      0x15
016D: 8D 65          bsr      0x01D4
016F: E6 A4          ldb      ,y
0171: C4 0F          andb     #0F
0173: A6 A4          lda      ,y
0175: 44             lsra     
0176: 44             lsra     
0177: 44             lsra     
0178: 44             lsra     
0179: 1C FB          andcc    #FB
017B: 35 B0          puls     x,y,pc ;(pul? pc=rts)

017D: 0C 15          inc      0x15
017F: 17 FF 40       lbsr     0x00C2
0182: 27 0A          beq      0x018E
0184: 24 F7          bcc      0x017D
0186: 17 FF 6E       lbsr     0x00F7
0189: 24 F2          bcc      0x017D
018B: 17 FF 75       lbsr     0x0103
018E: 0A 15          dec      0x15
0190: 86 01          lda      #01
0192: 39             rts      

0193: 8D B9          bsr      0x014E
0195: 81 07          cmpa     #07
0197: 26 0B          bne      0x01A4
0199: 5A             decb     
019A: 56             rorb     
019B: 56             rorb     
019C: 56             rorb     
019D: 56             rorb     
019E: DA A9          orb      0x00A9
01A0: D7 A9          stb      0x00A9
01A2: 1A 04          orcc     #04
01A4: 39             rts      

01A5: 01             Illegal Opcode, changing to data
01A6: 41             Illegal Opcode, changing to data
01A7: 68 01          asl      0x01,x
01A9: 42             Illegal Opcode, changing to data
01AA: 69 01          rol      0x01,x
01AC: 44             lsra     
01AD: 60 01          neg      0x01,x
01AF: 58             aslb     
01B0: 71             Illegal Opcode, changing to data
01B1: 01             Illegal Opcode, changing to data
01B2: 59             rolb     
01B3: 72             Illegal Opcode, changing to data
01B4: 01             Illegal Opcode, changing to data
01B5: 55             Illegal Opcode, changing to data
01B6: 73 01 53       com      0x0153
01B9: 74 02 50       lsr      0x0250
01BC: 43             coma     
01BD: 55             Illegal Opcode, changing to data
01BE: 02             Illegal Opcode, changing to data
01BF: 43             coma     
01C0: 43             coma     
01C1: 5A             decb     
01C2: 02             Illegal Opcode, changing to data
01C3: 44             lsra     
01C4: 50             negb     
01C5: 5B             Illegal Opcode, changing to data
01C6: 03 50          com      0x50
01C8: 43             coma     
01C9: 52             Illegal Opcode, changing to data
01CA: 4F             clra     
01CB: 00 AE          neg      0x00AE
01CD: 62             Illegal Opcode, changing to data
01CE: 5A             decb     
01CF: EB E4          addb     ,s
01D1: 31 A5          leay     b,y
01D3: 8C 34 16       cmpx     #0x3416
01D6: E6 A4          ldb      ,y
01D8: 1A 01          orcc     #01
01DA: 27 11          beq      0x01ED
01DC: 31 21          leay     0x01,y
01DE: C4 07          andb     #07
01E0: E1 61          cmpb     0x01,s
01E2: 26 EB          bne      0x01CF
01E4: A6 A0          lda      ,y+
01E6: A1 80          cmpa     ,x+
01E8: 26 E2          bne      0x01CC
01EA: 5A             decb     
01EB: 26 F7          bne      0x01E4
01ED: 35 96          puls     a,b,x,pc ;(pul? pc=rts)

01EF: 34 04          pshs     b
01F1: 5F             clrb     
01F2: EE A1          ldu      ,y++
01F4: A1 A0          cmpa     ,y+
01F6: 27 07          beq      0x01FF
01F8: 5C             incb     
01F9: E1 E4          cmpb     ,s
01FB: 26 F5          bne      0x01F2
01FD: 1C FB          andcc    #FB
01FF: 32 61          leas     0x01,s
0201: 39             rts      

0202: DE 00          ldu      0x00
0204: 2B 0D          bmi      0x0213
0206: 53             comb     
0207: D7 00          stb      0x00
0209: 8D 10          bsr      0x021B
020B: 53             comb     
020C: 58             aslb     
020D: 26 F7          bne      0x0206
020F: 1F 30          tfr      u,d
0211: 97 00          sta      0x00
0213: 39             rts      

0214: 30 8D 11 6F    leax     0x116F,pc ; (0x1387)
0218: 8D 1F          bsr      0x0239
021A: 86 4F          lda      #4F
021C: 34 02          pshs     a
021E: A6 80          lda      ,x+
0220: 81 0D          cmpa     #0D
0222: 23 20          bls      0x0244
0224: 17 00 3F       lbsr     0x0266
0227: 4D             tsta     
0228: 2A F4          bpl      0x021E
022A: 6D E0          tst      ,s+
022C: 10 26 00 34    lbne     0x0264
0230: 39             rts      

0231: 6F E2          clr      ,-s
0233: A6 80          lda      ,x+
0235: 84 7F          anda     #7F
0237: 20 E7          bra      0x0220

0239: 5D             tstb     
023A: 27 07          beq      0x0243
023C: A6 80          lda      ,x+
023E: 2A FC          bpl      0x023C
0240: 5A             decb     
0241: 26 F9          bne      0x023C
0243: 39             rts      

0244: 34 16          pshs     x,b,a
0246: 1F 89          tfr      a,b
0248: 30 8D 10 EA    leax     0x10EA,pc ; (0x1336)
024C: 8D EB          bsr      0x0239
024E: 8D CB          bsr      0x021B
0250: 35 16          puls     a,b,x
0252: 20 CA          bra      0x021E

0254: 86 2A          lda      #2A
0256: 8C 86 30       cmpx     #0x8630
0259: 8C 86 51       cmpx     #0x8651
025C: 8C 86 20       cmpx     #0x8620
025F: 8C 86 09       cmpx     #0x8609
0262: 20 02          bra      0x0266

0264: 86 0D          lda      #0D
0266: 34 47          pshs     u,b,a,cc
0268: 0D 00          tst      0x00
026A: 2B 28          bmi      0x0294
026C: 0D 01          tst      0x01
026E: 27 05          beq      0x0275
0270: 17 05 1C       lbsr     0x078F
0273: 20 1F          bra      0x0294

0275: 0D D6          tst      0x00D6
0277: 27 05          beq      0x027E
0279: 17 07 D0       lbsr     0x0A4C
027C: 20 16          bra      0x0294

027E: 84 7F          anda     #7F
0280: 27 12          beq      0x0294
0282: 81 09          cmpa     #09
0284: 27 10          beq      0x0296
0286: 0C 16          inc      0x16
0288: 0D 04          tst      0x04
028A: 27 05          beq      0x0291
028C: 17 0A 96       lbsr     0x0D25
028F: 20 03          bra      0x0294

0291: 17 04 E9       lbsr     0x077D
0294: 35 C7          puls     cc,a,b,u,pc ;(pul? pc=rts)

0296: 17 FF C4       lbsr     0x025D
0299: 96 16          lda      0x16
029B: 84 07          anda     #07
029D: 26 F7          bne      0x0296
029F: 20 F3          bra      0x0294

02A1: 5D             tstb     
02A2: 27 13          beq      0x02B7
02A4: A6 82          lda      ,-x
02A6: 81 09          cmpa     #09
02A8: 27 0E          beq      0x02B8
02AA: 5A             decb     
02AB: 8D 02          bsr      0x02AF
02AD: 8D AE          bsr      0x025D
02AF: 86 08          lda      #08
02B1: 8D B3          bsr      0x0266
02B3: 0A 16          dec      0x16
02B5: 0A 16          dec      0x16
02B7: 39             rts      

02B8: 8D F5          bsr      0x02AF
02BA: 26 FC          bne      0x02B8
02BC: 5A             decb     
02BD: 27 F8          beq      0x02B7
02BF: 34 14          pshs     x,b
02C1: 30 8D F9 36    leax     0xF936,pc ; (0xFBFB)
02C5: A6 80          lda      ,x+
02C7: 8D 9D          bsr      0x0266
02C9: 5A             decb     
02CA: 26 F9          bne      0x02C5
02CC: 35 94          puls     b,x,pc ;(pul? pc=rts)

02CE: 0D 16          tst      0x16
02D0: 27 04          beq      0x02D6
02D2: 8D D7          bsr      0x02AB
02D4: 26 FC          bne      0x02D2
02D6: 39             rts      

02D7: E6 1F          ldb      -0x01,x
02D9: C4 07          andb     #07
02DB: A6 80          lda      ,x+
02DD: 8D 87          bsr      0x0266
02DF: 5A             decb     
02E0: 26 F9          bne      0x02DB
02E2: 39             rts      

02E3: 34 14          pshs     x,b
02E5: 17 04 47       lbsr     0x072F
02E8: 30 8C 13       leax     0x13,pc ; (0x02FE)
02EB: C6 07          ldb      #07
02ED: A1 80          cmpa     ,x+
02EF: 27 0B          beq      0x02FC
02F1: 5A             decb     
02F2: 26 F9          bne      0x02ED
02F4: 81 20          cmpa     #20
02F6: 25 ED          bcs      0x02E5
02F8: 81 7A          cmpa     #7A
02FA: 22 E9          bhi      0x02E5
02FC: 35 94          puls     b,x,pc ;(pul? pc=rts)

02FE: 08 09          asl      0x09
0300: 0A 0D          dec      0x0D
0302: 15             Illegal Opcode, changing to data
0303: 03 1B          com      0x1B
0305: C6 06          ldb      #06
0307: 34 44          pshs     u,b
0309: 4F             clra     
030A: 5F             clrb     
030B: 8D 18          bsr      0x0325
030D: 26 03          bne      0x0312
030F: 5D             tstb     
0310: 27 05          beq      0x0317
0312: 8B 30          adda     #30
0314: 8D 4C          bsr      0x0362
0316: 5C             incb     
0317: 4F             clra     
0318: 8D 0B          bsr      0x0325
031A: 8D 09          bsr      0x0325
031C: 6A E4          dec      ,s
031E: 26 EB          bne      0x030B
0320: 17 FF 37       lbsr     0x025A
0323: 35 C4          puls     b,u,pc ;(pul? pc=rts)

0325: 68 64          asl      0x04,s
0327: 69 63          rol      0x03,s
0329: 49             rola     
032A: 39             rts      

032B: C6 80          ldb      #80
032D: 20 02          bra      0x0331

032F: C6 5F          ldb      #5F
0331: 34 44          pshs     u,b
0333: 33 E4          leau     ,s
0335: 6D C4          tst      ,u
0337: 2B 04          bmi      0x033D
0339: E6 61          ldb      0x01,s
033B: 8D 06          bsr      0x0343
033D: E6 62          ldb      0x02,s
033F: 8D 02          bsr      0x0343
0341: 35 C4          puls     b,u,pc ;(pul? pc=rts)

0343: 86 10          lda      #10
0345: 3D             mul      
0346: 8D 03          bsr      0x034B
0348: 86 10          lda      #10
034A: 3D             mul      
034B: 8D 18          bsr      0x0365
034D: 6D C4          tst      ,u
034F: 26 11          bne      0x0362
0351: 81 30          cmpa     #30
0353: 27 1A          beq      0x036F
0355: 6C C4          inc      ,u
0357: 81 41          cmpa     #41
0359: 25 07          bcs      0x0362
035B: 34 02          pshs     a
035D: 17 FE F7       lbsr     0x0257
0360: 35 02          puls     a
0362: 16 FF 01       lbra     0x0266

0365: 84 0F          anda     #0F
0367: 8B 30          adda     #30
0369: 81 3A          cmpa     #3A
036B: 25 02          bcs      0x036F
036D: 8B 07          adda     #07
036F: 39             rts      

0370: C6 5F          ldb      #5F
0372: 31 8C 22       leay     0x22,pc ; (0x0397)
0375: 86 2F          lda      #2F
0377: 34 06          pshs     b,a
0379: 1F 30          tfr      u,d
037B: 6C E4          inc      ,s
037D: 1F 03          tfr      d,u
037F: A3 A4          subd     ,y
0381: 24 F8          bcc      0x037B
0383: 35 06          puls     a,b
0385: 5D             tstb     
0386: 26 05          bne      0x038D
0388: 81 30          cmpa     #30
038A: 27 03          beq      0x038F
038C: 5C             incb     
038D: 8D D3          bsr      0x0362
038F: A6 21          lda      0x01,y
0391: 31 22          leay     0x02,y
0393: 4A             deca     
0394: 26 DF          bne      0x0375
0396: 39             rts      

0397: 27 10          beq      0x03A9
0399: 03 E8          com      0x00E8
039B: 00 64          neg      0x64
039D: 00 0A          neg      0x0A
039F: 00 01          neg      0x01
03A1: 30 8D F7 76    leax     0xF776,pc ; (0xFB1B)
03A5: 9F 0E          stx      0x0E
03A7: 9F 10          stx      0x10
03A9: 39             rts      

03AA: 34 76          pshs     u,y,x,b,a
03AC: 10 9C 1B       cmpy     0x1B
03AF: 27 11          beq      0x03C2
03B1: AC 66          cpx      0x06,s
03B3: 27 0D          beq      0x03C2
03B5: 22 09          bhi      0x03C0
03B7: 1F 20          tfr      y,d
03B9: 33 CB          leau     d,u
03BB: 30 8B          leax     d,x
03BD: 8D 12          bsr      0x03D1
03BF: 8C 8D 02       cmpx     #0x8D02
03C2: 35 F6          puls     a,b,x,y,u,pc ;(pul? pc=rts)

03C4: A6 80          lda      ,x+
03C6: A7 C0          sta      ,u+
03C8: 31 3F          leay     -0x01,y
03CA: 26 F8          bne      0x03C4
03CC: 39             rts      

03CD: 30 01          leax     0x01,x
03CF: 33 41          leau     0x01,u
03D1: A6 82          lda      ,-x
03D3: A7 C2          sta      ,-u
03D5: 31 3F          leay     -0x01,y
03D7: 26 F8          bne      0x03D1
03D9: 39             rts      

03DA: 86 20          lda      #20
03DC: A7 80          sta      ,x+
03DE: 5A             decb     
03DF: 26 FB          bne      0x03DC
03E1: 39             rts      

03E2: 10 8C 19 00    cmpy     #0x1900
03E6: 25 02          bcs      0x03EA
03E8: 43             coma     
03E9: 39             rts      

03EA: 80 30          suba     #30
03EC: 34 16          pshs     x,b,a
03EE: 1F 20          tfr      y,d
03F0: 8E 00 09       ldx      #0x09
03F3: 31 AB          leay     d,y
03F5: 30 1F          leax     -0x01,x
03F7: 26 FA          bne      0x03F3
03F9: 35 16          puls     a,b,x
03FB: 31 A6          leay     a,y
03FD: 39             rts      

03FE: EC C1          ldd      ,u++
0400: 10 83 FF FF    cmpd     #0xFFFF
0404: 26 0A          bne      0x0410
0406: C6 06          ldb      #06
0408: 17 FE 52       lbsr     0x025D
040B: 5A             decb     
040C: 26 FA          bne      0x0408
040E: 20 06          bra      0x0416

0410: 0D C1          tst      0x00C1
0412: 26 02          bne      0x0416
0414: 8D 11          bsr      0x0427
0416: 0F 16          clr      0x16
0418: E6 C0          ldb      ,u+
041A: 27 08          beq      0x0424
041C: A6 C0          lda      ,u+
041E: 17 FE 45       lbsr     0x0266
0421: 5A             decb     
0422: 20 F6          bra      0x041A

0424: 16 FE 3D       lbra     0x0264

0427: 34 76          pshs     u,y,x,b,a
0429: 1F 03          tfr      d,u
042B: 17 FF 42       lbsr     0x0370
042E: 86 FF          lda      #FF
0430: 97 16          sta      0x16
0432: 17 FE 28       lbsr     0x025D
0435: 35 F6          puls     a,b,x,y,u,pc ;(pul? pc=rts)

0437: D3 55          addd     0x55
0439: 42             Illegal Opcode, changing to data
043A: C1 80          cmpb     #80
043C: 43             coma     
043D: 4D             tsta     
043E: 50             negb     
043F: C1 81          cmpb     #81
0441: 53             comb     
0442: 42             Illegal Opcode, changing to data
0443: 43             coma     
0444: C1 82          cmpb     #82
0446: 53             comb     
0447: 55             Illegal Opcode, changing to data
0448: 42             Illegal Opcode, changing to data
0449: C4 83          andb     #83
044B: 41             Illegal Opcode, changing to data
044C: 4E             Illegal Opcode, changing to data
044D: 44             lsra     
044E: C1 84          cmpb     #84
0450: 42             Illegal Opcode, changing to data
0451: 49             rola     
0452: 54             lsrb     
0453: C1 85          cmpb     #85
0455: 4C             inca     
0456: 44             lsra     
0457: C1 86          cmpb     #86
0459: 53             comb     
045A: 54             lsrb     
045B: C1 87          cmpb     #87
045D: 45             Illegal Opcode, changing to data
045E: 4F             clra     
045F: 52             Illegal Opcode, changing to data
0460: C1 88          cmpb     #88
0462: 41             Illegal Opcode, changing to data
0463: 44             lsra     
0464: 43             coma     
0465: C1 89          cmpb     #89
0467: 4F             clra     
0468: 52             Illegal Opcode, changing to data
0469: C1 8A          cmpb     #8A
046B: 41             Illegal Opcode, changing to data
046C: 44             lsra     
046D: 44             lsra     
046E: C1 8B          cmpb     #8B
0470: 43             coma     
0471: 4D             tsta     
0472: 50             negb     
0473: D8 8C          eorb     0x008C
0475: 4A             deca     
0476: 53             comb     
0477: D2 8D          sbcb     0x008D
0479: 4C             inca     
047A: 44             lsra     
047B: D8 8E          eorb     0x008E
047D: 53             comb     
047E: 54             lsrb     
047F: D8 8F          eorb     0x008F
0481: 53             comb     
0482: 55             Illegal Opcode, changing to data
0483: 42             Illegal Opcode, changing to data
0484: C2 C0          sbcb     #C0
0486: 43             coma     
0487: 4D             tsta     
0488: 50             negb     
0489: C2 C1          sbcb     #C1
048B: 53             comb     
048C: 42             Illegal Opcode, changing to data
048D: 43             coma     
048E: C2 C2          sbcb     #C2
0490: 41             Illegal Opcode, changing to data
0491: 44             lsra     
0492: 44             lsra     
0493: C4 C3          andb     #C3
0495: 41             Illegal Opcode, changing to data
0496: 4E             Illegal Opcode, changing to data
0497: 44             lsra     
0498: C2 C4          sbcb     #C4
049A: 42             Illegal Opcode, changing to data
049B: 49             rola     
049C: 54             lsrb     
049D: C2 C5          sbcb     #C5
049F: 4C             inca     
04A0: 44             lsra     
04A1: C2 C6          sbcb     #C6
04A3: 53             comb     
04A4: 54             lsrb     
04A5: C2 C7          sbcb     #C7
04A7: 45             Illegal Opcode, changing to data
04A8: 4F             clra     
04A9: 52             Illegal Opcode, changing to data
04AA: C2 C8          sbcb     #C8
04AC: 41             Illegal Opcode, changing to data
04AD: 44             lsra     
04AE: 43             coma     
04AF: C2 C9          sbcb     #C9
04B1: 4F             clra     
04B2: 52             Illegal Opcode, changing to data
04B3: C2 CA          sbcb     #CA
04B5: 41             Illegal Opcode, changing to data
04B6: 44             lsra     
04B7: 44             lsra     
04B8: C2 CB          sbcb     #CB
04BA: 4C             inca     
04BB: 44             lsra     
04BC: C4 CC          andb     #CC
04BE: 53             comb     
04BF: 54             lsrb     
04C0: C4 CD          andb     #CD
04C2: 4C             inca     
04C3: 44             lsra     
04C4: D5 CE          bitb     0x00CE
04C6: 53             comb     
04C7: 54             lsrb     
04C8: D5 CF          bitb     0x00CF
04CA: CE 45 C7       ldu      #0x45C7
04CD: 00 43          neg      0x43
04CF: 4F             clra     
04D0: CD             Illegal Opcode, changing to data
04D1: 03 4C          com      0x4C
04D3: 53             comb     
04D4: D2 04          sbcb     0x04
04D6: 52             Illegal Opcode, changing to data
04D7: 4F             clra     
04D8: D2 06          sbcb     0x06
04DA: 41             Illegal Opcode, changing to data
04DB: 53             comb     
04DC: D2 07          sbcb     0x07
04DE: 41             Illegal Opcode, changing to data
04DF: 53             comb     
04E0: CC 08 4C       ldd      #0x084C
04E3: 53             comb     
04E4: CC 08 52       ldd      #0x0852
04E7: 4F             clra     
04E8: CC 09 44       ldd      #0x0944
04EB: 45             Illegal Opcode, changing to data
04EC: C3 0A 49       addd     #0x0A49
04EF: 4E             Illegal Opcode, changing to data
04F0: C3 0C 54       addd     #0x0C54
04F3: 53             comb     
04F4: D4 0D          andb     0x0D
04F6: 4A             deca     
04F7: 4D             tsta     
04F8: D0 0E          subb     0x0E
04FA: 43             coma     
04FB: 4C             inca     
04FC: D2 0F          sbcb     0x0F
04FE: CE 45 47       ldu      #0x4547
0501: C1 40          cmpb     #40
0503: 43             coma     
0504: 4F             clra     
0505: 4D             tsta     
0506: C1 43          cmpb     #43
0508: 4C             inca     
0509: 53             comb     
050A: 52             Illegal Opcode, changing to data
050B: C1 44          cmpb     #44
050D: 52             Illegal Opcode, changing to data
050E: 4F             clra     
050F: 52             Illegal Opcode, changing to data
0510: C1 46          cmpb     #46
0512: 41             Illegal Opcode, changing to data
0513: 53             comb     
0514: 52             Illegal Opcode, changing to data
0515: C1 47          cmpb     #47
0517: 41             Illegal Opcode, changing to data
0518: 53             comb     
0519: 4C             inca     
051A: C1 48          cmpb     #48
051C: 4C             inca     
051D: 53             comb     
051E: 4C             inca     
051F: C1 48          cmpb     #48
0521: 52             Illegal Opcode, changing to data
0522: 4F             clra     
0523: 4C             inca     
0524: C1 49          cmpb     #49
0526: 44             lsra     
0527: 45             Illegal Opcode, changing to data
0528: 43             coma     
0529: C1 4A          cmpb     #4A
052B: 49             rola     
052C: 4E             Illegal Opcode, changing to data
052D: 43             coma     
052E: C1 4C          cmpb     #4C
0530: 54             lsrb     
0531: 53             comb     
0532: 54             lsrb     
0533: C1 4D          cmpb     #4D
0535: 43             coma     
0536: 4C             inca     
0537: 52             Illegal Opcode, changing to data
0538: C1 4F          cmpb     #4F
053A: 4E             Illegal Opcode, changing to data
053B: 45             Illegal Opcode, changing to data
053C: 47             asra     
053D: C2 50          sbcb     #50
053F: 43             coma     
0540: 4F             clra     
0541: 4D             tsta     
0542: C2 53          sbcb     #53
0544: 4C             inca     
0545: 53             comb     
0546: 52             Illegal Opcode, changing to data
0547: C2 54          sbcb     #54
0549: 52             Illegal Opcode, changing to data
054A: 4F             clra     
054B: 52             Illegal Opcode, changing to data
054C: C2 56          sbcb     #56
054E: 41             Illegal Opcode, changing to data
054F: 53             comb     
0550: 52             Illegal Opcode, changing to data
0551: C2 57          sbcb     #57
0553: 41             Illegal Opcode, changing to data
0554: 53             comb     
0555: 4C             inca     
0556: C2 58          sbcb     #58
0558: 4C             inca     
0559: 53             comb     
055A: 4C             inca     
055B: C2 58          sbcb     #58
055D: 52             Illegal Opcode, changing to data
055E: 4F             clra     
055F: 4C             inca     
0560: C2 59          sbcb     #59
0562: 44             lsra     
0563: 45             Illegal Opcode, changing to data
0564: 43             coma     
0565: C2 5A          sbcb     #5A
0567: 49             rola     
0568: 4E             Illegal Opcode, changing to data
0569: 43             coma     
056A: C2 5C          sbcb     #5C
056C: 54             lsrb     
056D: 53             comb     
056E: 54             lsrb     
056F: C2 5D          sbcb     #5D
0571: 43             coma     
0572: 4C             inca     
0573: 52             Illegal Opcode, changing to data
0574: C2 5F          sbcb     #5F
0576: 53             comb     
0577: 57             asrb     
0578: C9 3F          adcb     #3F
057A: 4D             tsta     
057B: 55             Illegal Opcode, changing to data
057C: CC 3D 52       ldd      #0x3D52
057F: 54             lsrb     
0580: C9 3B          adcb     #3B
0582: 41             Illegal Opcode, changing to data
0583: 42             Illegal Opcode, changing to data
0584: D8 3A          eorb     0x3A
0586: 52             Illegal Opcode, changing to data
0587: 54             lsrb     
0588: D3 39          addd     0x39
058A: 53             comb     
058B: 45             Illegal Opcode, changing to data
058C: D8 1D          eorb     0x1D
058E: 44             lsra     
058F: 41             Illegal Opcode, changing to data
0590: C1 19          cmpb     #19
0592: 53             comb     
0593: 59             rolb     
0594: 4E             Illegal Opcode, changing to data
0595: C3 13 4E       addd     #0x134E
0598: 4F             clra     
0599: D0 12          subb     0x12
059B: C2 52          sbcb     #52
059D: C1 20          cmpb     #20
059F: 42             Illegal Opcode, changing to data
05A0: 52             Illegal Opcode, changing to data
05A1: CE 21 42       ldu      #0x2142
05A4: 48             asla     
05A5: C9 22          adcb     #22
05A7: 42             Illegal Opcode, changing to data
05A8: 4C             inca     
05A9: D3 23          addd     0x23
05AB: 42             Illegal Opcode, changing to data
05AC: 48             asla     
05AD: D3 24          addd     0x24
05AF: 42             Illegal Opcode, changing to data
05B0: 4C             inca     
05B1: CF             Illegal Opcode, changing to data
05B2: 25 42          bcs      0x05F6
05B4: 4E             Illegal Opcode, changing to data
05B5: C5 26          bitb     #26
05B7: 42             Illegal Opcode, changing to data
05B8: 45             Illegal Opcode, changing to data
05B9: D1 27          cmpb     0x27
05BB: 42             Illegal Opcode, changing to data
05BC: 56             rorb     
05BD: C3 28 42       addd     #0x2842
05C0: 56             rorb     
05C1: D3 29          addd     0x29
05C3: 42             Illegal Opcode, changing to data
05C4: 50             negb     
05C5: CC 2A 42       ldd      #0x2A42
05C8: 4D             tsta     
05C9: C9 2B          adcb     #2B
05CB: 42             Illegal Opcode, changing to data
05CC: 47             asra     
05CD: C5 2C          bitb     #2C
05CF: 42             Illegal Opcode, changing to data
05D0: 4C             inca     
05D1: D4 2D          andb     0x2D
05D3: 42             Illegal Opcode, changing to data
05D4: 47             asra     
05D5: D4 2E          andb     0x2E
05D7: 42             Illegal Opcode, changing to data
05D8: 4C             inca     
05D9: C5 2F          bitb     #2F
05DB: 42             Illegal Opcode, changing to data
05DC: 53             comb     
05DD: D2 8D          sbcb     0x008D
05DF: 42             Illegal Opcode, changing to data
05E0: 43             coma     
05E1: C3 24 42       addd     #0x2442
05E4: 43             coma     
05E5: D3 25          addd     0x25
05E7: CC 42 52       ldd      #0x4252
05EA: C1 16          cmpb     #16
05EC: 4C             inca     
05ED: 42             Illegal Opcode, changing to data
05EE: 53             comb     
05EF: D2 17          sbcb     0x17
05F1: CC 42 52       ldd      #0x4252
05F4: CE 21 4C       ldu      #0x214C
05F7: 42             Illegal Opcode, changing to data
05F8: 48             asla     
05F9: C9 22          adcb     #22
05FB: 4C             inca     
05FC: 42             Illegal Opcode, changing to data
05FD: 4C             inca     
05FE: D3 23          addd     0x23
0600: 4C             inca     
0601: 42             Illegal Opcode, changing to data
0602: 48             asla     
0603: D3 24          addd     0x24
0605: 4C             inca     
0606: 42             Illegal Opcode, changing to data
0607: 4C             inca     
0608: CF             Illegal Opcode, changing to data
0609: 25 4C          bcs      0x0657
060B: 42             Illegal Opcode, changing to data
060C: 4E             Illegal Opcode, changing to data
060D: C5 26          bitb     #26
060F: 4C             inca     
0610: 42             Illegal Opcode, changing to data
0611: 45             Illegal Opcode, changing to data
0612: D1 27          cmpb     0x27
0614: 4C             inca     
0615: 42             Illegal Opcode, changing to data
0616: 56             rorb     
0617: C3 28 4C       addd     #0x284C
061A: 42             Illegal Opcode, changing to data
061B: 56             rorb     
061C: D3 29          addd     0x29
061E: 4C             inca     
061F: 42             Illegal Opcode, changing to data
0620: 50             negb     
0621: CC 2A 4C       ldd      #0x2A4C
0624: 42             Illegal Opcode, changing to data
0625: 4D             tsta     
0626: C9 2B          adcb     #2B
0628: 4C             inca     
0629: 42             Illegal Opcode, changing to data
062A: 47             asra     
062B: C5 2C          bitb     #2C
062D: 4C             inca     
062E: 42             Illegal Opcode, changing to data
062F: 4C             inca     
0630: D4 2D          andb     0x2D
0632: 4C             inca     
0633: 42             Illegal Opcode, changing to data
0634: 47             asra     
0635: D4 2E          andb     0x2E
0637: 4C             inca     
0638: 42             Illegal Opcode, changing to data
0639: 4C             inca     
063A: C5 2F          bitb     #2F
063C: 4C             inca     
063D: 42             Illegal Opcode, changing to data
063E: 43             coma     
063F: C3 24 4C       addd     #0x244C
0642: 42             Illegal Opcode, changing to data
0643: 43             coma     
0644: D3 25          addd     0x25
0646: CF             Illegal Opcode, changing to data
0647: 52             Illegal Opcode, changing to data
0648: 43             coma     
0649: C3 1A 41       addd     #0x1A41
064C: 4E             Illegal Opcode, changing to data
064D: 44             lsra     
064E: 43             coma     
064F: C3 1C 43       addd     #0x1C43
0652: 57             asrb     
0653: 41             Illegal Opcode, changing to data
0654: C9 3C          adcb     #3C
0656: CC 45 41       ldd      #0x4541
0659: D8 30          eorb     0x30
065B: 4C             inca     
065C: 45             Illegal Opcode, changing to data
065D: 41             Illegal Opcode, changing to data
065E: D9 31          adcb     0x31
0660: 4C             inca     
0661: 45             Illegal Opcode, changing to data
0662: 41             Illegal Opcode, changing to data
0663: D3 32          addd     0x32
0665: 4C             inca     
0666: 45             Illegal Opcode, changing to data
0667: 41             Illegal Opcode, changing to data
0668: D5 33          bitb     0x33
066A: C5 58          bitb     #58
066C: C7             Illegal Opcode, changing to data
066D: 1E 54          exg      pc,s
066F: 46             rora     
0670: D2 1F          sbcb     0x1F
0672: D0 53          subb     0x53
0674: 48             asla     
0675: D3 34          addd     0x34
0677: 50             negb     
0678: 55             Illegal Opcode, changing to data
0679: 4C             inca     
067A: D3 35          addd     0x35
067C: D0 53          subb     0x53
067E: 48             asla     
067F: D5 36          bitb     0x36
0681: 50             negb     
0682: 55             Illegal Opcode, changing to data
0683: 4C             inca     
0684: D5 37          bitb     0x37
0686: D3 57          addd     0x57
0688: 49             rola     
0689: B2 3F C3       sbca     0x3FC3
068C: 4D             tsta     
068D: 50             negb     
068E: C4 83          andb     #83
0690: 43             coma     
0691: 4D             tsta     
0692: 50             negb     
0693: D9 8C          adcb     0x008C
0695: 4C             inca     
0696: 44             lsra     
0697: D9 8E          adcb     0x008E
0699: 53             comb     
069A: 54             lsrb     
069B: D9 8F          adcb     0x008F
069D: 4C             inca     
069E: 44             lsra     
069F: D3 CE          addd     0x00CE
06A1: 53             comb     
06A2: 54             lsrb     
06A3: D3 CF          addd     0x00CF
06A5: D3 57          addd     0x57
06A7: 49             rola     
06A8: B3 3F C3       subd     0x3FC3
06AB: 4D             tsta     
06AC: 50             negb     
06AD: D5 83          bitb     0x0083
06AF: 43             coma     
06B0: 4D             tsta     
06B1: 50             negb     
06B2: D3 8C          addd     0x008C
06B4: C6 43          ldb      #43
06B6: C2 00          sbcb     #00
06B8: C6 44          ldb      #44
06BA: C2 00          sbcb     #00
06BC: C6 43          ldb      #43
06BE: C3 00 D2       addd     #0x00D2
06C1: 4D             tsta     
06C2: C2 00          sbcb     #00
06C4: D3 45          addd     0x45
06C6: D4 00          andb     0x00
06C8: C5 51          bitb     #51
06CA: D5 00          bitb     0x00
06CC: CF             Illegal Opcode, changing to data
06CD: 52             Illegal Opcode, changing to data
06CE: C7             Illegal Opcode, changing to data
06CF: 00 D3          neg      0x00D3
06D1: 45             Illegal Opcode, changing to data
06D2: 54             lsrb     
06D3: 44             lsra     
06D4: D0 00          subb     0x00
06D6: C5 4E          bitb     #4E
06D8: C4 00          andb     #00
06DA: C5 4E          bitb     #4E
06DC: C4 00          andb     #00
06DE: D4 49          andb     0x49
06E0: 54             lsrb     
06E1: 4C             inca     
06E2: C5 00          bitb     #00
06E4: D0 41          subb     0x41
06E6: 47             asra     
06E7: C5 00          bitb     #00
06E9: CD             Illegal Opcode, changing to data
06EA: 41             Illegal Opcode, changing to data
06EB: 43             coma     
06EC: 52             Illegal Opcode, changing to data
06ED: CF             Illegal Opcode, changing to data
06EE: 00 C5          neg      0x00C5
06F0: 4E             Illegal Opcode, changing to data
06F1: 44             lsra     
06F2: CD             Illegal Opcode, changing to data
06F3: 00 CF          neg      0x00CF
06F5: 50             negb     
06F6: D4 00          andb     0x00
06F8: C9 4E          adcb     #4E
06FA: 43             coma     
06FB: 4C             inca     
06FC: 55             Illegal Opcode, changing to data
06FD: 44             lsra     
06FE: C5 00          bitb     #00
0700: C3 4F 4E       addd     #0x4F4E
0703: C4 00          andb     #00
0705: C5 4E          bitb     #4E
0707: 44             lsra     
0708: C3 00 00       addd     #0x00
070B: 34 7F          pshs     u,y,x,dp,b,a,cc
070D: 5F             clrb     
070E: 1F 9B          tfr      b,dp
0710: BD A7 E9       jsr      0xA7E9
0713: 35 FF          puls     cc,a,b,dp,x,y,u,pc ;(pul? pc=rts)

0715: 7F 00 71       clr      0x71
0718: 10 CE 03 D7    lds      #0x03D7
071C: CE A0 17       ldu      #0xA017
071F: 31 C4          leay     ,u
0721: 7E A0 2A       jmp      0xA02A

0724: 4F             clra     
0725: 1F 8B          tfr      a,dp
0727: 4A             deca     
0728: 6E 9F 06 1E    jmp      [0x061E]

072C: 8D 45          bsr      0x0773
072E: 8C 34 7C       cmpx     #0x347C
0731: 5F             clrb     
0732: 1F 9B          tfr      b,dp
0734: C6 60          ldb      #60
0736: C8 40          eorb     #40
0738: E7 9F 00 88    stb      [0x0088]
073C: 8E 01 50       ldx      #0x0150
073F: AD 9F A0 00    jsr      [0xA000]
0743: 26 06          bne      0x074B
0745: 30 1F          leax     -0x01,x
0747: 26 F6          bne      0x073F
0749: 20 EB          bra      0x0736

074B: C6 60          ldb      #60
074D: E7 9F 00 88    stb      [0x0088]
0751: 81 5F          cmpa     #5F
0753: 26 02          bne      0x0757
0755: 86 1B          lda      #1B
0757: 81 0C          cmpa     #0C
0759: 27 D1          beq      0x072C
075B: 35 FC          puls     b,dp,x,y,u,pc ;(pul? pc=rts)

075D: 34 0C          pshs     dp,b
075F: 5F             clrb     
0760: 1F 9B          tfr      b,dp
0762: C6 FF          ldb      #FF
0764: F7 00 6F       stb      0x6F
0767: BD A1 76       jsr      0xA176
076A: 7D 00 70       tst      0x70
076D: 27 02          beq      0x0771
076F: 86 1A          lda      #1A
0771: 35 8C          puls     b,dp,pc ;(pul? pc=rts)

0773: 34 08          pshs     dp
0775: 5F             clrb     
0776: 1F 9B          tfr      b,dp
0778: BD A9 28       jsr      0xA928
077B: 35 88          puls     dp,pc ;(pul? pc=rts)

077D: F6 00 6F       ldb      0x6F
0780: 34 04          pshs     b
0782: 8D 06          bsr      0x078A
0784: 35 04          puls     b
0786: F7 00 6F       stb      0x6F
0789: 39             rts      

078A: 5F             clrb     
078B: 8C C6 FE       cmpx     #0xC6FE
078E: 8C C6 FF       cmpx     #0xC6FF
0791: F7 00 6F       stb      0x6F
0794: 34 0C          pshs     dp,b
0796: 5F             clrb     
0797: 1F 9B          tfr      b,dp
0799: AD 9F A0 02    jsr      [0xA002]
079D: 35 8C          puls     b,dp,pc ;(pul? pc=rts)

079F: 34 7C          pshs     u,y,x,dp,b
07A1: 4F             clra     
07A2: 1F 8B          tfr      a,dp
07A4: AD 9F A0 00    jsr      [0xA000]
07A8: 35 7C          puls     b,dp,x,y,u
07AA: 27 08          beq      0x07B4
07AC: 81 03          cmpa     #03
07AE: 27 07          beq      0x07B7
07B0: 81 13          cmpa     #13
07B2: 27 16          beq      0x07CA
07B4: 1C FE          andcc    #FE
07B6: 39             rts      

07B7: 96 DC          lda      0x00DC
07B9: 10 27 0D B9    lbeq     0x1576
07BD: 81 01          cmpa     #01
07BF: 27 03          beq      0x07C4
07C1: 16 22 31       lbra     0x29F5

07C4: 1A 01          orcc     #01
07C6: 39             rts      

07C7: 17 FA 50       lbsr     0x021A
07CA: 17 FB 16       lbsr     0x02E3
07CD: 20 DD          bra      0x07AC

07CF: 0D D7          tst      0x00D7
07D1: 10 26 01 DD    lbne     0x09B2
07D5: 8D 3F          bsr      0x0816
07D7: 86 FF          lda      #FF
07D9: B7 00 6F       sta      0x6F
07DC: 7F 00 78       clr      0x78
07DF: 86 02          lda      #02
07E1: 8E 00 FF       ldx      #0x00FF
07E4: CE A6 5F       ldu      #0xA65F
07E7: 20 24          bra      0x080D

07E9: 0D D7          tst      0x00D7
07EB: 10 26 01 87    lbne     0x0976
07EF: CE A6 29       ldu      #0xA629
07F2: 20 0B          bra      0x07FF

07F4: 0D D7          tst      0x00D7
07F6: 10 26 01 85    lbne     0x097F
07FA: CE A6 5C       ldu      #0xA65C
07FD: 86 03          lda      #03
07FF: 34 02          pshs     a
0801: 8D 13          bsr      0x0816
0803: 86 FF          lda      #FF
0805: B7 00 6F       sta      0x6F
0808: 7F 00 78       clr      0x78
080B: 35 02          puls     a
080D: 34 08          pshs     dp
080F: 5F             clrb     
0810: 1F 9B          tfr      b,dp
0812: AD C4          jsr      ,u
0814: 35 88          puls     dp,pc ;(pul? pc=rts)

0816: 34 14          pshs     x,b
0818: 30 8C 2B       leax     0x2B,pc ; (0x0846)
081B: 17 FF A9       lbsr     0x07C7
081E: 35 14          puls     b,x
0820: F7 01 D1       stb      0x01D1
0823: 27 17          beq      0x083C
0825: 34 04          pshs     b
0827: C6 08          ldb      #08
0829: 31 84          leay     ,x
082B: 8E 01 D2       ldx      #0x01D2
082E: 17 FB A9       lbsr     0x03DA
0831: 30 18          leax     -0x08,x
0833: 35 04          puls     b
0835: A6 A0          lda      ,y+
0837: A7 80          sta      ,x+
0839: 5A             decb     
083A: 26 F9          bne      0x0835
083C: 39             rts      

083D: 16 04 D3       lbra     0x0D13

0840: 30 8C 11       leax     0x11,pc ; (0x0854)
0843: 16 FF 81       lbra     0x07C7

0846: 52             Illegal Opcode, changing to data
0847: 45             Illegal Opcode, changing to data
0848: 41             Illegal Opcode, changing to data
0849: 44             lsra     
084A: 59             rolb     
084B: 20 43          bra      0x0890

084D: 41             Illegal Opcode, changing to data
084E: 53             comb     
084F: 53             comb     
0850: 45             Illegal Opcode, changing to data
0851: 54             lsrb     
0852: 54             lsrb     
0853: C5 52          bitb     #52
0855: 45             Illegal Opcode, changing to data
0856: 41             Illegal Opcode, changing to data
0857: 44             lsra     
0858: 59             rolb     
0859: 20 50          bra      0x08AB

085B: 52             Illegal Opcode, changing to data
085C: 49             rola     
085D: 4E             Illegal Opcode, changing to data
085E: 54             lsrb     
085F: 45             Illegal Opcode, changing to data
0860: D2 86          sbcb     0x0086
0862: FF B7 00       stu      0xB700
0865: 6F CE          clr      
0867: A4 2D          anda     0x0D,y
0869: 20 A2          bra      0x080D

086B: 8D A9          bsr      0x0816
086D: 7F 00 78       clr      0x78
0870: CE A5 EE       ldu      #0xA5EE
0873: 20 98          bra      0x080D

0875: 0D D7          tst      0x00D7
0877: 10 26 01 FA    lbne     0x0A75
087B: 34 40          pshs     u
087D: CE A6 48       ldu      #0xA648
0880: 17 FF 7C       lbsr     0x07FF
0883: 35 10          puls     x
0885: 86 02          lda      #02
0887: B1 01 E2       cmpa     0x01E2
088A: 10 26 00 BD    lbne     0x094B
088E: CE A5 11       ldu      #0xA511
0891: 7D 01 E4       tst      0x01E4
0894: 27 03          beq      0x0899
0896: 33 8C 03       leau     0x03,pc ; (0x089C)
0899: 16 FF 71       lbra     0x080D

089C: BF 00 D3       stx      0x00D3
089F: 7C 00 78       inc      0x78
08A2: BD A6 35       jsr      0xA635
08A5: 8D 2C          bsr      0x08D3
08A7: 34 02          pshs     a
08A9: 8D 21          bsr      0x08CC
08AB: 1F 02          tfr      d,y
08AD: 8D 1D          bsr      0x08CC
08AF: F3 00 D3       addd     0x00D3
08B2: FD 00 9D       std      0x009D
08B5: 1F 01          tfr      d,x
08B7: A6 E0          lda      ,s+
08B9: 27 03          beq      0x08BE
08BB: 7E A4 2D       jmp      0xA42D

08BE: 8D 13          bsr      0x08D3
08C0: A7 84          sta      ,x
08C2: A1 80          cmpa     ,x+
08C4: 26 1A          bne      0x08E0
08C6: 31 3F          leay     -0x01,y
08C8: 26 F4          bne      0x08BE
08CA: 20 D9          bra      0x08A5

08CC: 8D 00          bsr      0x08CE
08CE: 8D 03          bsr      0x08D3
08D0: 1E 89          exg      a,b
08D2: 39             rts      

08D3: 86 FF          lda      #FF
08D5: B7 00 6F       sta      0x6F
08D8: BD A1 76       jsr      0xA176
08DB: 7D 00 70       tst      0x70
08DE: 27 F2          beq      0x08D2
08E0: 7E A6 19       jmp      0xA619

08E3: 0D D7          tst      0x00D7
08E5: 10 26 02 15    lbne     0x0AFE
08E9: EE 64          ldu      0x04,s
08EB: FF 01 E7       stu      0x01E7
08EE: EE E4          ldu      ,s
08F0: FF 01 E5       stu      0x01E5
08F3: 17 FF 20       lbsr     0x0816
08F6: 35 36          puls     a,b,x,y
08F8: 33 8C 09       leau     0x09,pc ; (0x0904)
08FB: 34 08          pshs     dp
08FD: 34 76          pshs     u,y,x,b,a
08FF: 5F             clrb     
0900: 1F 9B          tfr      b,dp
0902: 20 02          bra      0x0906

0904: 35 88          puls     dp,pc ;(pul? pc=rts)

0906: 86 02          lda      #02
0908: BE 00 8A       ldx      0x008A
090B: BD A6 5F       jsr      0xA65F
090E: 7F 00 78       clr      0x78
0911: 7C 00 7C       inc      0x7C
0914: BD A7 D8       jsr      0xA7D8
0917: AE 64          ldx      0x04,s
0919: BF 00 7E       stx      0x7E
091C: 86 FF          lda      #FF
091E: B7 00 7D       sta      0x7D
0921: EC 62          ldd      0x02,s
0923: B3 00 7E       subd     0x7E
0926: 24 05          bcc      0x092D
0928: 32 66          leas     0x06,s
092A: 7E A4 91       jmp      0xA491

092D: 10 83 00 FF    cmpd     #0x00FF
0931: 24 04          bcc      0x0937
0933: 5C             incb     
0934: F7 00 7D       stb      0x7D
0937: BD A7 F4       jsr      0xA7F4
093A: 20 DD          bra      0x0919

093C: 34 12          pshs     x,a
093E: 86 7E          lda      #7E
0940: B7 01 8E       sta      0x018E
0943: 30 8C 09       leax     0x09,pc ; (0x094F)
0946: BF 01 8F       stx      0x018F
0949: 35 92          puls     a,x,pc ;(pul? pc=rts)

094B: C6 0A          ldb      #0A
094D: 20 14          bra      0x0963

094F: 1F 01          tfr      d,x
0951: 32 8D F6 AB    leas     0xF6AB,pc ; (0x10000)
0955: 17 F7 40       lbsr     0x0098
0958: 17 FD B0       lbsr     0x070B
095B: 1F 10          tfr      x,d
095D: C1 2A          cmpb     #2A
095F: 27 EA          beq      0x094B
0961: C6 02          ldb      #02
0963: 0F 01          clr      0x01
0965: 0F 04          clr      0x04
0967: 17 F8 FA       lbsr     0x0264
096A: 17 F8 A7       lbsr     0x0214
096D: 0D 00          tst      0x00
096F: 10 27 0C 03    lbeq     0x1576
0973: 16 20 7F       lbra     0x29F5

0976: 8D 18          bsr      0x0990
0978: 8D 3C          bsr      0x09B6
097A: 0D F4          tst      0x00F4
097C: 27 0D          beq      0x098B
097E: 39             rts      

097F: 8D 0F          bsr      0x0990
0981: 0A E6          dec      0x00E6
0983: 20 31          bra      0x09B6

0985: 8D 09          bsr      0x0990
0987: 0C E5          inc      0x00E5
0989: 20 2B          bra      0x09B6

098B: C6 0A          ldb      #0A
098D: 16 00 D4       lbra     0x0A64

0990: 0F E6          clr      0x00E6
0992: 0F E5          clr      0x00E5
0994: 86 03          lda      #03
0996: 97 F3          sta      0x00F3
0998: 86 FF          lda      #FF
099A: 97 F4          sta      0x00F4
099C: 31 8C 01       leay     0x01,pc ; (0x09A0)
099F: 39             rts      

09A0: 41             Illegal Opcode, changing to data
09A1: 53             comb     
09A2: 4D             tsta     
09A3: 8D 3E          bsr      0x09E3
09A5: 8D 0F          bsr      0x09B6
09A7: 96 F3          lda      0x00F3
09A9: 81 02          cmpa     #02
09AB: 26 DE          bne      0x098B
09AD: 0D F4          tst      0x00F4
09AF: 26 DA          bne      0x098B
09B1: 39             rts      

09B2: 8D 2F          bsr      0x09E3
09B4: 0A E6          dec      0x00E6
09B6: 33 8D F2 36    leau     0xF236,pc ; (0xFBF0)
09BA: C6 03          ldb      #03
09BC: A6 A0          lda      ,y+
09BE: A7 C0          sta      ,u+
09C0: 5A             decb     
09C1: 26 F9          bne      0x09BC
09C3: 9F F7          stx      0x00F7
09C5: 30 8D F2 1E    leax     0xF21E,pc ; (0xFBE7)
09C9: 9F F9          stx      0x00F9
09CB: 30 8D F2 26    leax     0xF226,pc ; (0xFBF5)
09CF: 86 04          lda      #04
09D1: A7 84          sta      ,x
09D3: 8D 08          bsr      0x09DD
09D5: 30 8D F2 0A    leax     0xF20A,pc ; (0xFBE3)
09D9: 86 00          lda      #00
09DB: A7 84          sta      ,x
09DD: 17 01 67       lbsr     0x0B47
09E0: 26 2A          bne      0x0A0C
09E2: 39             rts      

09E3: 0F E6          clr      0x00E6
09E5: 0F E5          clr      0x00E5
09E7: 86 02          lda      #02
09E9: 97 F3          sta      0x00F3
09EB: 0F F4          clr      0x00F4
09ED: 31 8C 01       leay     0x01,pc ; (0x09F1)
09F0: 39             rts      

09F1: 42             Illegal Opcode, changing to data
09F2: 49             rola     
09F3: 4E             Illegal Opcode, changing to data
09F4: 0F E5          clr      0x00E5
09F6: 8D 17          bsr      0x0A0F
09F8: 0C E5          inc      0x00E5
09FA: 20 13          bra      0x0A0F

09FC: 86 01          lda      #01
09FE: 97 E5          sta      0x00E5
0A00: 20 08          bra      0x0A0A

0A02: 0F E5          clr      0x00E5
0A04: 0D D7          tst      0x00D7
0A06: 10 27 FE 57    lbeq     0x0861
0A0A: 8D 03          bsr      0x0A0F
0A0C: 26 54          bne      0x0A62
0A0E: 39             rts      

0A0F: 30 8D F1 D0    leax     0xF1D0,pc ; (0xFBE3)
0A13: 86 03          lda      #03
0A15: A7 84          sta      ,x
0A17: 16 01 2D       lbra     0x0B47

0A1A: 0D D7          tst      0x00D7
0A1C: 10 27 FD 3D    lbeq     0x075D
0A20: 34 10          pshs     x
0A22: 30 8D F1 BD    leax     0xF1BD,pc ; (0xFBE3)
0A26: 86 01          lda      #01
0A28: A7 84          sta      ,x
0A2A: 17 01 1A       lbsr     0x0B47
0A2D: 26 04          bne      0x0A33
0A2F: 96 E6          lda      0x00E6
0A31: 35 90          puls     x,pc ;(pul? pc=rts)

0A33: A6 01          lda      0x01,x
0A35: 81 05          cmpa     #05
0A37: 26 29          bne      0x0A62
0A39: 86 1A          lda      #1A
0A3B: 35 90          puls     x,pc ;(pul? pc=rts)

0A3D: 8D E1          bsr      0x0A20
0A3F: 1E 89          exg      a,b
0A41: 8D DD          bsr      0x0A20
0A43: 1E 89          exg      a,b
0A45: 39             rts      

0A46: 0D D7          tst      0x00D7
0A48: 10 27 FD 43    lbeq     0x078F
0A4C: 34 13          pshs     x,a,cc
0A4E: 97 E6          sta      0x00E6
0A50: 30 8D F1 8F    leax     0xF18F,pc ; (0xFBE3)
0A54: 86 02          lda      #02
0A56: A7 84          sta      ,x
0A58: 8D 83          bsr      0x09DD
0A5A: 35 93          puls     cc,a,x,pc ;(pul? pc=rts)

0A5C: 8D EE          bsr      0x0A4C
0A5E: 1E 89          exg      a,b
0A60: 20 EA          bra      0x0A4C

0A62: E6 01          ldb      0x01,x
0A64: 0F D6          clr      0x00D6
0A66: 17 F7 AB       lbsr     0x0214
0A69: 17 FF 88       lbsr     0x09F4
0A6C: 0D 00          tst      0x00
0A6E: 10 27 0A DE    lbeq     0x1550
0A72: 16 1F 80       lbra     0x29F5

0A75: 34 60          pshs     u,y
0A77: 17 FF 29       lbsr     0x09A3
0A7A: 17 FF A3       lbsr     0x0A20
0A7D: 4D             tsta     
0A7E: 26 10          bne      0x0A90
0A80: 17 FF BA       lbsr     0x0A3D
0A83: 1F 01          tfr      d,x
0A85: 17 FF B5       lbsr     0x0A3D
0A88: E3 62          addd     0x02,s
0A8A: 1F 03          tfr      d,u
0A8C: 8D 5A          bsr      0x0AE8
0A8E: 20 EA          bra      0x0A7A

0A90: 4C             inca     
0A91: 26 63          bne      0x0AF6
0A93: 17 FF A7       lbsr     0x0A3D
0A96: 17 FF A4       lbsr     0x0A3D
0A99: DD 41          std      0x41
0A9B: 0D 7E          tst      0x7E
0A9D: 27 2E          beq      0x0ACD
0A9F: 17 FF 7E       lbsr     0x0A20
0AA2: 81 01          cmpa     #01
0AA4: 26 50          bne      0x0AF6
0AA6: EE E4          ldu      ,s
0AA8: 17 FF 92       lbsr     0x0A3D
0AAB: 1F 01          tfr      d,x
0AAD: 17 FF 8D       lbsr     0x0A3D
0AB0: 8D 36          bsr      0x0AE8
0AB2: AE E4          ldx      ,s
0AB4: 9F 0E          stx      0x0E
0AB6: 33 5F          leau     -0x01,u
0AB8: DF 10          stu      0x10
0ABA: 30 8C 15       leax     0x15,pc ; (0x0AD2)
0ABD: 17 F7 5B       lbsr     0x021B
0AC0: DE 0E          ldu      0x0E
0AC2: 17 F8 6B       lbsr     0x0330
0AC5: 17 F7 53       lbsr     0x021B
0AC8: DE 10          ldu      0x10
0ACA: 17 F8 63       lbsr     0x0330
0ACD: 17 FF 32       lbsr     0x0A02
0AD0: 35 E0          puls     y,u,pc ;(pul? pc=rts)

0AD2: 53             comb     
0AD3: 59             rolb     
0AD4: 4D             tsta     
0AD5: 54             lsrb     
0AD6: 42             Illegal Opcode, changing to data
0AD7: 4C             inca     
0AD8: 3A             abx      
0AD9: 20 20          bra      0x0AFB

0ADB: 46             rora     
0ADC: 49             rola     
0ADD: 52             Illegal Opcode, changing to data
0ADE: 53             comb     
0ADF: 54             lsrb     
0AE0: BD 20 20       jsr      0x2020
0AE3: 4C             inca     
0AE4: 41             Illegal Opcode, changing to data
0AE5: 53             comb     
0AE6: 54             lsrb     
0AE7: BD 17 FF       jsr      0x17FF
0AEA: 35 A7          puls     cc,a,b,y,pc ;(pul? pc=rts)

0AEC: C4 A1          andb     #A1
0AEE: C0 26          subb     #26
0AF0: 08 30          asl      0x30
0AF2: 1F 26          tfr      y,inv
0AF4: F3 39 C6       addd     0x39C6
0AF7: 0B             Illegal Opcode, changing to data
0AF8: 8C C6 17       cmpx     #0xC617
0AFB: 16 FF 66       lbra     0x0A64

0AFE: 17 FE B1       lbsr     0x09B2
0B01: 4F             clra     
0B02: 17 FF 47       lbsr     0x0A4C
0B05: EC 62          ldd      0x02,s
0B07: A3 64          subd     0x04,s
0B09: C3 00 01       addd     #0x01
0B0C: 1F 01          tfr      d,x
0B0E: 17 FF 4B       lbsr     0x0A5C
0B11: EC 64          ldd      0x04,s
0B13: 1F 03          tfr      d,u
0B15: 17 FF 44       lbsr     0x0A5C
0B18: 8D 1B          bsr      0x0B35
0B1A: 86 FF          lda      #FF
0B1C: 17 FF 2D       lbsr     0x0A4C
0B1F: 4F             clra     
0B20: 5F             clrb     
0B21: 17 FF 38       lbsr     0x0A5C
0B24: EC E4          ldd      ,s
0B26: 17 FF 33       lbsr     0x0A5C
0B29: 0D 7E          tst      0x7E
0B2B: 27 03          beq      0x0B30
0B2D: 17 02 95       lbsr     0x0DC5
0B30: 17 FE CF       lbsr     0x0A02
0B33: 35 B6          puls     a,b,x,y,pc ;(pul? pc=rts)

0B35: A6 C0          lda      ,u+
0B37: 17 FF 12       lbsr     0x0A4C
0B3A: 30 1F          leax     -0x01,x
0B3C: 26 F7          bne      0x0B35
0B3E: 39             rts      

0B3F: 8E 00 00       ldx      #0x00
0B42: C6 64          ldb      #64
0B44: 16 F5 72       lbra     0x00B9

0B47: 34 77          pshs     u,y,x,b,a,cc
0B49: 10 DF 0B       sts      0x0B
0B4C: 17 01 53       lbsr     0x0CA2
0B4F: 8D 05          bsr      0x0B56
0B51: 35 77          puls     cc,a,b,x,y,u
0B53: 6F 01          clr      0x01,x
0B55: 39             rts      

0B56: A6 84          lda      ,x
0B58: 81 01          cmpa     #01
0B5A: 27 25          beq      0x0B81
0B5C: 81 02          cmpa     #02
0B5E: 27 26          beq      0x0B86
0B60: 81 00          cmpa     #00
0B62: 27 32          beq      0x0B96
0B64: 81 04          cmpa     #04
0B66: 10 27 00 98    lbeq     0x0C02
0B6A: A6 C8 10       lda      0x10,u
0B6D: 81 21          cmpa     #21
0B6F: 27 08          beq      0x0B79
0B71: 81 2E          cmpa     #2E
0B73: 27 04          beq      0x0B79
0B75: 81 3E          cmpa     #3E
0B77: 26 07          bne      0x0B80
0B79: 8E 06 02       ldx      #0x0602
0B7C: 8D 14          bsr      0x0B92
0B7E: 26 0D          bne      0x0B8D
0B80: 39             rts      

0B81: 8E 06 04       ldx      #0x0604
0B84: 20 03          bra      0x0B89

0B86: 8E 06 06       ldx      #0x0606
0B89: 86 01          lda      #01
0B8B: 8D 05          bsr      0x0B92
0B8D: 10 26 01 32    lbne     0x0CC3
0B91: 39             rts      

0B92: AD 94          jsr      [,x]
0B94: 4D             tsta     
0B95: 39             rts      

0B96: 8D 48          bsr      0x0BE0
0B98: 86 21          lda      #21
0B9A: 6D 03          tst      0x03,x
0B9C: 27 18          beq      0x0BB6
0B9E: 86 3E          lda      #3E
0BA0: 8D 21          bsr      0x0BC3
0BA2: 34 10          pshs     x
0BA4: 8D C4          bsr      0x0B6A
0BA6: 35 10          puls     x
0BA8: 8D 36          bsr      0x0BE0
0BAA: A6 88 10       lda      0x10,x
0BAD: A7 4B          sta      0x0B,u
0BAF: A6 88 11       lda      0x11,x
0BB2: A7 4C          sta      0x0C,u
0BB4: 86 2E          lda      #2E
0BB6: 8D 0B          bsr      0x0BC3
0BB8: A6 4B          lda      0x0B,u
0BBA: A7 88 10       sta      0x10,x
0BBD: A6 4C          lda      0x0C,u
0BBF: A7 88 11       sta      0x11,x
0BC2: 39             rts      

0BC3: 34 12          pshs     x,a
0BC5: 8E 06 00       ldx      #0x0600
0BC8: 8D C8          bsr      0x0B92
0BCA: 27 0C          beq      0x0BD8
0BCC: 81 0C          cmpa     #0C
0BCE: 26 BD          bne      0x0B8D
0BD0: A6 E4          lda      ,s
0BD2: 81 21          cmpa     #21
0BD4: 10 27 00 EB    lbeq     0x0CC3
0BD8: CC 00 01       ldd      #0x01
0BDB: ED C8 11       std      0x11,u
0BDE: 35 92          puls     a,x,pc ;(pul? pc=rts)

0BE0: 34 30          pshs     y,x
0BE2: 10 AF C8 24    sty      0x24,u
0BE6: 31 03          leay     0x03,x
0BE8: 10 AF C8 27    sty      0x27,u
0BEC: 30 04          leax     0x04,x
0BEE: A6 80          lda      ,x+
0BF0: A7 C8 21       sta      0x21,u
0BF3: CC 00 01       ldd      #0x01
0BF6: ED C8 11       std      0x11,u
0BF9: 10 8E 00 0D    ldy      #0x0D
0BFD: 17 F7 AA       lbsr     0x03AA
0C00: 35 B0          puls     x,y,pc ;(pul? pc=rts)

0C02: 33 84          leau     ,x
0C04: 86 FF          lda      #FF
0C06: A7 D8 04       sta      [0x04,u]
0C09: AE 44          ldx      0x04,u
0C0B: 30 01          leax     0x01,x
0C0D: C6 08          ldb      #08
0C0F: 17 F7 C8       lbsr     0x03DA
0C12: AE 44          ldx      0x04,u
0C14: 10 AE 42       ldy      0x02,u
0C17: 34 50          pshs     u,x
0C19: A6 21          lda      0x01,y
0C1B: 81 3A          cmpa     #3A
0C1D: 26 0B          bne      0x0C2A
0C1F: A6 A4          lda      ,y
0C21: 17 F4 C6       lbsr     0x00EA
0C24: 25 04          bcs      0x0C2A
0C26: 8D 67          bsr      0x0C8F
0C28: 31 21          leay     0x01,y
0C2A: C6 08          ldb      #08
0C2C: 30 01          leax     0x01,x
0C2E: 8D 35          bsr      0x0C65
0C30: 10 27 00 A8    lbeq     0x0CDC
0C34: 81 2E          cmpa     #2E
0C36: 27 04          beq      0x0C3C
0C38: 81 2F          cmpa     #2F
0C3A: 26 0D          bne      0x0C49
0C3C: 34 10          pshs     x
0C3E: C6 03          ldb      #03
0C40: 17 F7 97       lbsr     0x03DA
0C43: 35 10          puls     x
0C45: C6 03          ldb      #03
0C47: 8D 1C          bsr      0x0C65
0C49: 81 3A          cmpa     #3A
0C4B: 26 04          bne      0x0C51
0C4D: 8D 40          bsr      0x0C8F
0C4F: 31 21          leay     0x01,y
0C51: 31 3F          leay     -0x01,y
0C53: A6 A4          lda      ,y
0C55: 8D 2F          bsr      0x0C86
0C57: 26 3A          bne      0x0C93
0C59: 35 50          puls     x,u
0C5B: 10 AF 42       sty      0x02,u
0C5E: 6D 84          tst      ,x
0C60: 2A 02          bpl      0x0C64
0C62: 6F 84          clr      ,x
0C64: 39             rts      

0C65: 34 04          pshs     b
0C67: A6 A0          lda      ,y+
0C69: 8D 1B          bsr      0x0C86
0C6B: 27 14          beq      0x0C81
0C6D: 81 2F          cmpa     #2F
0C6F: 27 10          beq      0x0C81
0C71: 81 2E          cmpa     #2E
0C73: 27 0C          beq      0x0C81
0C75: 81 3A          cmpa     #3A
0C77: 27 08          beq      0x0C81
0C79: 5D             tstb     
0C7A: 27 60          beq      0x0CDC
0C7C: A7 80          sta      ,x+
0C7E: 5A             decb     
0C7F: 20 E6          bra      0x0C67

0C81: 30 85          leax     b,x
0C83: E0 E0          subb     ,s+
0C85: 39             rts      

0C86: 27 06          beq      0x0C8E
0C88: 81 0D          cmpa     #0D
0C8A: 27 02          beq      0x0C8E
0C8C: 81 20          cmpa     #20
0C8E: 39             rts      

0C8F: A6 A0          lda      ,y+
0C91: 80 30          suba     #30
0C93: 25 47          bcs      0x0CDC
0C95: 81 03          cmpa     #03
0C97: 22 43          bhi      0x0CDC
0C99: 6D D8 04       tst      [0x04,u]
0C9C: 2A 3E          bpl      0x0CDC
0C9E: A7 D8 04       sta      [0x04,u]
0CA1: 39             rts      

0CA2: 6D 02          tst      0x02,x
0CA4: 26 08          bne      0x0CAE
0CA6: CE 00 00       ldu      #0x00
0CA9: 31 8D F0 9C    leay     0xF09C,pc ; (0xFD49)
0CAD: 39             rts      

0CAE: CE 00 32       ldu      #0x32
0CB1: 31 8D F1 94    leay     0xF194,pc ; (0xFE49)
0CB5: 39             rts      

0CB6: 34 76          pshs     u,y,x,b,a
0CB8: 30 8D EF 27    leax     0xEF27,pc ; (0xFBE3)
0CBC: 8D E4          bsr      0x0CA2
0CBE: ED C8 2C       std      0x2C,u
0CC1: 35 F6          puls     a,b,x,y,u,pc ;(pul? pc=rts)

0CC3: 81 03          cmpa     #03
0CC5: 25 04          bcs      0x0CCB
0CC7: 81 08          cmpa     #08
0CC9: 23 14          bls      0x0CDF
0CCB: 31 8C 1E       leay     0x1E,pc ; (0x0CEC)
0CCE: A1 A4          cmpa     ,y
0CD0: 27 07          beq      0x0CD9
0CD2: 6D A1          tst      ,y++
0CD4: 26 F8          bne      0x0CCE
0CD6: C6 03          ldb      #03
0CD8: 8C E6 21       cmpx     #0xE621
0CDB: 8C C6 09       cmpx     #0xC609
0CDE: 8C C6 02       cmpx     #0xC602
0CE1: 10 DE 0B       lds      0x0B
0CE4: 35 01          puls     cc
0CE6: AE 62          ldx      0x02,s
0CE8: E7 01          stb      0x01,x
0CEA: 35 F6          puls     a,b,x,y,u,pc ;(pul? pc=rts)

0CEC: 01             Illegal Opcode, changing to data
0CED: 01             Illegal Opcode, changing to data
0CEE: 02             Illegal Opcode, changing to data
0CEF: 08 0A          asl      0x0A
0CF1: 04 0B          lsr      0x0B
0CF3: 06 11          ror      0x11
0CF5: 05             Illegal Opcode, changing to data
0CF6: 15             Illegal Opcode, changing to data
0CF7: 08 16          asl      0x16
0CF9: 07 00          asr      0x00
0CFB: 0D D7          tst      0x00D7
0CFD: 10 27 F4 1B    lbeq     0x011C
0D01: 86 2F          lda      #2F
0D03: 17 01 58       lbsr     0x0E5E
0D06: 10 26 01 66    lbne     0x0E70
0D0A: 17 F3 F6       lbsr     0x0103
0D0D: 30 8C 02       leax     0x02,pc ; (0x0D12)
0D10: 5F             clrb     
0D11: 39             rts      

0D12: 0D D6          tst      0x00D6
0D14: E0 D0          subb     [,u+]
0D16: D9 96          adcb     0x0096
0D18: E0 97          subb     []
0D1A: D9 86          adcb     0x0086
0D1C: 0D 8D          tst      0x008D
0D1E: 06 5A          ror      0x5A
0D20: 26 F9          bne      0x0D1B
0D22: 0F D9          clr      0x00D9
0D24: 39             rts      

0D25: 34 77          pshs     u,y,x,b,a,cc
0D27: 81 0A          cmpa     #0A
0D29: 27 35          beq      0x0D60
0D2B: 0D D9          tst      0x00D9
0D2D: 26 02          bne      0x0D31
0D2F: 8D 3C          bsr      0x0D6D
0D31: 81 0D          cmpa     #0D
0D33: 26 08          bne      0x0D3D
0D35: 0D DA          tst      0x00DA
0D37: 26 04          bne      0x0D3D
0D39: 8D 2A          bsr      0x0D65
0D3B: 86 0D          lda      #0D
0D3D: 17 FA 4C       lbsr     0x078C
0D40: 0C DA          inc      0x00DA
0D42: 81 0D          cmpa     #0D
0D44: 26 0C          bne      0x0D52
0D46: 0F DA          clr      0x00DA
0D48: 0C D9          inc      0x00D9
0D4A: 96 D9          lda      0x00D9
0D4C: 91 DF          cmpa     0x00DF
0D4E: 26 13          bne      0x0D63
0D50: 8D C1          bsr      0x0D13
0D52: 96 DA          lda      0x00DA
0D54: 91 E1          cmpa     0x00E1
0D56: 26 0B          bne      0x0D63
0D58: 0D E2          tst      0x00E2
0D5A: 26 EA          bne      0x0D46
0D5C: 8D 0A          bsr      0x0D68
0D5E: 20 E6          bra      0x0D46

0D60: 17 FA 29       lbsr     0x078C
0D63: 35 F7          puls     cc,a,b,x,y,u,pc ;(pul? pc=rts)

0D65: 86 20          lda      #20
0D67: 8C 86 0D       cmpx     #0x860D
0D6A: 16 FA 1F       lbra     0x078C

0D6D: D6 16          ldb      0x16
0D6F: 34 06          pshs     b,a
0D71: 0D 77          tst      0x77
0D73: 27 32          beq      0x0DA7
0D75: 0C D9          inc      0x00D9
0D77: 30 8D EF 8A    leax     0xEF8A,pc ; (0xFD05)
0D7B: 86 80          lda      #80
0D7D: A7 88 20       sta      0x20,x
0D80: 17 F4 98       lbsr     0x021B
0D83: C6 0A          ldb      #0A
0D85: 34 04          pshs     b
0D87: 8D DC          bsr      0x0D65
0D89: 35 04          puls     b
0D8B: 5A             decb     
0D8C: 26 F7          bne      0x0D85
0D8E: 30 8C 1B       leax     0x1B,pc ; (0x0DAC)
0D91: 17 F4 87       lbsr     0x021B
0D94: 0C DB          inc      0x00DB
0D96: D6 DB          ldb      0x00DB
0D98: 4F             clra     
0D99: 1F 03          tfr      d,u
0D9B: 17 F5 D3       lbsr     0x0371
0D9E: C6 03          ldb      #03
0DA0: 17 FF 78       lbsr     0x0D1B
0DA3: C6 03          ldb      #03
0DA5: D7 D9          stb      0x00D9
0DA7: 35 06          puls     a,b
0DA9: D7 16          stb      0x16
0DAB: 39             rts      

0DAC: 45             Illegal Opcode, changing to data
0DAD: 44             lsra     
0DAE: 54             lsrb     
0DAF: 41             Illegal Opcode, changing to data
0DB0: 53             comb     
0DB1: 4D             tsta     
0DB2: 2B 2F          bmi      0x0DE3
0DB4: 30 31          leax     -0x0F,y
0DB6: 2E 30          bgt      0x0DE8
0DB8: 30 2E          leax     0x0E,y
0DBA: 30 30          leax     -0x10,y
0DBC: 20 20          bra      0x0DDE

0DBE: 20 20          bra      0x0DE0

0DC0: 50             negb     
0DC1: 41             Illegal Opcode, changing to data
0DC2: 47             asra     
0DC3: 45             Illegal Opcode, changing to data
0DC4: A0 86          suba     a,x
0DC6: 01             Illegal Opcode, changing to data
0DC7: 17 FC 82       lbsr     0x0A4C
0DCA: 8D 0F          bsr      0x0DDB
0DCC: 1F 01          tfr      d,x
0DCE: 17 FC 8B       lbsr     0x0A5C
0DD1: 4F             clra     
0DD2: 5F             clrb     
0DD3: 17 FC 86       lbsr     0x0A5C
0DD6: DE 0E          ldu      0x0E
0DD8: 16 FD 5A       lbra     0x0B35

0DDB: DC 10          ldd      0x10
0DDD: 93 0E          subd     0x0E
0DDF: C3 00 01       addd     #0x01
0DE2: 39             rts      

0DE3: 17 F3 1D       lbsr     0x0103
0DE6: 8D 76          bsr      0x0E5E
0DE8: 26 F9          bne      0x0DE3
0DEA: 0F 7E          clr      0x7E
0DEC: 8D 0B          bsr      0x0DF9
0DEE: 27 08          beq      0x0DF8
0DF0: 86 53          lda      #53
0DF2: 8D 6A          bsr      0x0E5E
0DF4: 26 02          bne      0x0DF8
0DF6: 0A 7E          dec      0x7E
0DF8: 39             rts      

0DF9: 0F D7          clr      0x00D7
0DFB: 86 43          lda      #43
0DFD: 17 00 5E       lbsr     0x0E5E
0E00: 27 0D          beq      0x0E0F
0E02: 4C             inca     
0E03: 17 00 58       lbsr     0x0E5E
0E06: 27 05          beq      0x0E0D
0E08: 0A D7          dec      0x00D7
0E0A: 1A 01          orcc     #01
0E0C: 39             rts      

0E0D: 0A D7          dec      0x00D7
0E0F: 1C FE          andcc    #FE
0E11: 39             rts      

0E12: 34 37          pshs     y,x,b,a,cc
0E14: 26 08          bne      0x0E1E
0E16: 81 2F          cmpa     #2F
0E18: 27 06          beq      0x0E20
0E1A: 81 3A          cmpa     #3A
0E1C: 27 02          beq      0x0E20
0E1E: 35 B7          puls     cc,a,b,x,y,pc ;(pul? pc=rts)

0E20: 9E 13          ldx      0x13
0E22: 31 8C 16       leay     0x16,pc ; (0x0E3B)
0E25: C6 02          ldb      #02
0E27: 4F             clra     
0E28: 17 F3 A9       lbsr     0x01D4
0E2B: 24 09          bcc      0x0E36
0E2D: 31 21          leay     0x01,y
0E2F: 5C             incb     
0E30: C1 04          cmpb     #04
0E32: 23 F4          bls      0x0E28
0E34: 20 E8          bra      0x0E1E

0E36: 35 37          puls     cc,a,b,x,y
0E38: 1C FB          andcc    #FB
0E3A: 39             rts      

0E3B: 02             Illegal Opcode, changing to data
0E3C: 4C             inca     
0E3D: 20 02          bra      0x0E41

0E3F: 50             negb     
0E40: 20 00          bra      0x0E42

0E42: 03 4C          com      0x4C
0E44: 53             comb     
0E45: 20 03          bra      0x0E4A

0E47: 4C             inca     
0E48: 44             lsra     
0E49: 20 03          bra      0x0E4E

0E4B: 50             negb     
0E4C: 53             comb     
0E4D: 20 03          bra      0x0E52

0E4F: 50             negb     
0E50: 44             lsra     
0E51: 20 00          bra      0x0E53

0E53: 04 4C          lsr      0x4C
0E55: 44             lsra     
0E56: 53             comb     
0E57: 20 04          bra      0x0E5D

0E59: 50             negb     
0E5A: 44             lsra     
0E5B: 53             comb     
0E5C: 20 00          bra      0x0E5E

0E5E: 34 02          pshs     a
0E60: 17 F2 5F       lbsr     0x00C2
0E63: 27 07          beq      0x0E6C
0E65: A1 E4          cmpa     ,s
0E67: 27 05          beq      0x0E6E
0E69: 17 F2 97       lbsr     0x0103
0E6C: A1 E4          cmpa     ,s
0E6E: 35 82          puls     a,pc ;(pul? pc=rts)

0E70: 30 8D EE C6    leax     0xEEC6,pc ; (0xFD3A)
0E74: 1F 13          tfr      x,u
0E76: 5F             clrb     
0E77: 17 F2 85       lbsr     0x00FF
0E7A: 17 F2 45       lbsr     0x00C2
0E7D: 27 16          beq      0x0E95
0E7F: 81 09          cmpa     #09
0E81: 26 02          bne      0x0E85
0E83: 86 20          lda      #20
0E85: 81 20          cmpa     #20
0E87: 27 09          beq      0x0E92
0E89: A7 C0          sta      ,u+
0E8B: 5C             incb     
0E8C: C1 0E          cmpb     #0E
0E8E: 23 EA          bls      0x0E7A
0E90: 43             coma     
0E91: 39             rts      

0E92: 17 F2 6E       lbsr     0x0103
0E95: A7 C4          sta      ,u
0E97: 4F             clra     
0E98: 39             rts      

0E99: 86 4F          lda      #4F
0E9B: 34 02          pshs     a
0E9D: 17 FB 7A       lbsr     0x0A1A
0EA0: 81 1A          cmpa     #1A
0EA2: 27 4B          beq      0x0EEF
0EA4: 81 0D          cmpa     #0D
0EA6: 27 F5          beq      0x0E9D
0EA8: 81 0A          cmpa     #0A
0EAA: 27 F1          beq      0x0E9D
0EAC: 10 9E 1B       ldy      0x1B
0EAF: C6 FF          ldb      #FF
0EB1: 20 09          bra      0x0EBC

0EB3: 17 F5 2C       lbsr     0x03E2
0EB6: 25 33          bcs      0x0EEB
0EB8: 5F             clrb     
0EB9: 17 FB 5E       lbsr     0x0A1A
0EBC: 17 F2 2B       lbsr     0x00EA
0EBF: 24 F2          bcc      0x0EB3
0EC1: 5D             tstb     
0EC2: 26 27          bne      0x0EEB
0EC4: 10 AF 81       sty      ,x++
0EC7: 1F 12          tfr      x,y
0EC9: 30 01          leax     0x01,x
0ECB: 8D 26          bsr      0x0EF3
0ECD: 81 20          cmpa     #20
0ECF: 26 1A          bne      0x0EEB
0ED1: 17 FB 46       lbsr     0x0A1A
0ED4: 81 0D          cmpa     #0D
0ED6: 27 19          beq      0x0EF1
0ED8: A7 80          sta      ,x+
0EDA: 5C             incb     
0EDB: 8D 16          bsr      0x0EF3
0EDD: A1 1F          cmpa     -0x01,x
0EDF: 26 07          bne      0x0EE8
0EE1: C1 80          cmpb     #80
0EE3: 25 EC          bcs      0x0ED1
0EE5: C6 10          ldb      #10
0EE7: 8C C6 17       cmpx     #0xC617
0EEA: 8C C6 0E       cmpx     #0xC60E
0EED: 4F             clra     
0EEE: 8E 1A 01       ldx      #0x1A01
0EF1: 35 82          puls     a,pc ;(pul? pc=rts)

0EF3: 34 07          pshs     b,a,cc
0EF5: E7 A4          stb      ,y
0EF7: 6D 65          tst      0x05,s
0EF9: 27 07          beq      0x0F02
0EFB: 9F B9          stx      0x00B9
0EFD: CC FF FF       ldd      #0xFFFF
0F00: ED 84          std      ,x
0F02: 35 87          puls     cc,a,b,pc ;(pul? pc=rts)

0F04: 12             nop      
0F05: 17 F1 90       lbsr     0x0098
0F08: B6 FF 03       lda      0xFF03
0F0B: 8A 01          ora      #01
0F0D: B7 FF 03       sta      0xFF03
0F10: 1C AF          andcc    #AF
0F12: 7F 09 82       clr      0x0982
0F15: 7F 09 85       clr      0x0985
0F18: 7F 09 86       clr      0x0986
0F1B: 7F FF 40       clr      0xFF40
0F1E: 86 D0          lda      #D0
0F20: B7 FF 48       sta      0xFF48
0F23: 1E 88          exg      a,a
0F25: 1E 88          exg      a,a
0F27: B6 FF 48       lda      0xFF48
0F2A: 96 DC          lda      0x00DC
0F2C: 81 02          cmpa     #02
0F2E: 10 27 1F D6    lbeq     0x2F08
0F32: 16 05 F7       lbra     0x152C

0F35: 9E B3          ldx      0x00B3
0F37: 9F B9          stx      0x00B9
0F39: CC FF FF       ldd      #0xFFFF
0F3C: ED 84          std      ,x
0F3E: 39             rts      

0F3F: 10 DF 0B       sts      0x0B
0F42: 0F 06          clr      0x06
0F44: 0F 1D          clr      0x1D
0F46: 34 70          pshs     u,y,x
0F48: 33 8D EB CF    leau     0xEBCF,pc ; (0xFB1B)
0F4C: 34 40          pshs     u
0F4E: 8D 58          bsr      0x0FA8
0F50: 17 01 18       lbsr     0x106B
0F53: DD 19          std      0x19
0F55: 17 02 3C       lbsr     0x1194
0F58: 27 1B          beq      0x0F75
0F5A: 81 03          cmpa     #03
0F5C: 27 38          beq      0x0F96
0F5E: 81 02          cmpa     #02
0F60: 26 38          bne      0x0F9A
0F62: 31 8D 02 6A    leay     0x026A,pc ; (0x11D0)
0F66: CC 02 01       ldd      #0x0201
0F69: 17 F2 68       lbsr     0x01D4
0F6C: 25 2C          bcs      0x0F9A
0F6E: 6D A4          tst      ,y
0F70: 2A 18          bpl      0x0F8A
0F72: 17 F1 8E       lbsr     0x0103
0F75: 6D F4          tst      [,s]
0F77: 27 04          beq      0x0F7D
0F79: 8D 3F          bsr      0x0FBA
0F7B: 20 F8          bra      0x0F75

0F7D: 32 62          leas     0x02,s
0F7F: D6 1D          ldb      0x1D
0F81: 26 1E          bne      0x0FA1
0F83: 4F             clra     
0F84: DC 19          ldd      0x19
0F86: 35 F0          puls     x,y,u,pc ;(pul? pc=rts)

0F88: 8D 30          bsr      0x0FBA
0F8A: A6 A4          lda      ,y
0F8C: A1 F4          cmpa     [,s]
0F8E: 23 F8          bls      0x0F88
0F90: DE 19          ldu      0x19
0F92: 34 60          pshs     u,y
0F94: 20 B8          bra      0x0F4E

0F96: 6D A4          tst      ,y
0F98: 2A F0          bpl      0x0F8A
0F9A: C6 16          ldb      #16
0F9C: 10 DE 0B       lds      0x0B
0F9F: 32 7A          leas     -0x06,s
0FA1: 0F 19          clr      0x19
0FA3: 0F 1A          clr      0x1A
0FA5: 43             coma     
0FA6: 35 F0          puls     x,y,u,pc ;(pul? pc=rts)

0FA8: CC FF E8       ldd      #0xFFE8
0FAB: 30 EB          leax     d,s
0FAD: 33 8D EF 98    leau     0xEF98,pc ; (0xFF49)
0FB1: 34 40          pshs     u
0FB3: C6 16          ldb      #16
0FB5: AC E1          cpx      ,s++
0FB7: 23 E3          bls      0x0F9C
0FB9: 39             rts      

0FBA: 35 56          puls     a,b,x,u
0FBC: 34 06          pshs     b,a
0FBE: E6 01          ldb      0x01,x
0FC0: 30 8C 08       leax     0x08,pc ; (0x0FCB)
0FC3: 3A             abx      
0FC4: 1F 30          tfr      u,d
0FC6: AD 84          jsr      ,x
0FC8: DD 19          std      0x19
0FCA: 39             rts      

0FCB: D3 19          addd     0x19
0FCD: 39             rts      

0FCE: 93 19          subd     0x19
0FD0: 39             rts      

0FD1: 94 19          anda     0x19
0FD3: D4 1A          andb     0x1A
0FD5: 39             rts      

0FD6: 9A 19          ora      0x19
0FD8: DA 1A          orb      0x1A
0FDA: 39             rts      

0FDB: 98 19          eora     0x19
0FDD: D8 1A          eorb     0x1A
0FDF: 39             rts      

0FE0: 93 19          subd     0x19
0FE2: 27 05          beq      0x0FE9
0FE4: 4F             clra     
0FE5: 5F             clrb     
0FE6: 39             rts      

0FE7: 8D F7          bsr      0x0FE0
0FE9: 43             coma     
0FEA: 53             comb     
0FEB: 39             rts      

0FEC: DE 1B          ldu      0x1B
0FEE: 04 19          lsr      0x19
0FF0: 06 1A          ror      0x1A
0FF2: 24 02          bcc      0x0FF6
0FF4: 33 CB          leau     d,u
0FF6: 58             aslb     
0FF7: 49             rola     
0FF8: 9E 19          ldx      0x19
0FFA: 26 F2          bne      0x0FEE
0FFC: 1F 30          tfr      u,d
0FFE: 39             rts      

0FFF: 1F 01          tfr      d,x
1001: CC 00 11       ldd      #0x11
1004: 4C             inca     
1005: 5A             decb     
1006: 27 3C          beq      0x1044
1008: 08 1A          asl      0x1A
100A: 09 19          rol      0x19
100C: 24 F6          bcc      0x1004
100E: 06 19          ror      0x19
1010: 06 1A          ror      0x1A
1012: 1F 89          tfr      a,b
1014: DE 1B          ldu      0x1B
1016: 34 06          pshs     b,a
1018: 34 40          pshs     u
101A: 1F 10          tfr      x,d
101C: 25 09          bcs      0x1027
101E: 10 93 19       cmpd     0x19
1021: 49             rola     
1022: 88 01          eora     #01
1024: 46             rora     
1025: 24 04          bcc      0x102B
1027: 93 19          subd     0x19
1029: 1A 01          orcc     #01
102B: 69 61          rol      0x01,s
102D: 69 E4          rol      ,s
102F: 58             aslb     
1030: 49             rola     
1031: 24 01          bcc      0x1034
1033: 5C             incb     
1034: 6A 62          dec      0x02,s
1036: 26 E4          bne      0x101C
1038: 46             rora     
1039: 56             rorb     
103A: 1C FE          andcc    #FE
103C: 6A 63          dec      0x03,s
103E: 26 F8          bne      0x1038
1040: 1F 01          tfr      d,x
1042: 35 C6          puls     a,b,u,pc ;(pul? pc=rts)

1044: C6 16          ldb      #16
1046: 16 FF 53       lbra     0x0F9C

1049: 8D B4          bsr      0x0FFF
104B: 1E 01          exg      d,x
104D: 39             rts      

104E: 9E 19          ldx      0x19
1050: 27 08          beq      0x105A
1052: 2B 07          bmi      0x105B
1054: 58             aslb     
1055: 49             rola     
1056: 30 1F          leax     -0x01,x
1058: 26 FA          bne      0x1054
105A: 39             rts      

105B: 44             lsra     
105C: 56             rorb     
105D: 30 01          leax     0x01,x
105F: 26 FA          bne      0x105B
1061: 39             rts      

1062: C1 29          cmpb     #29
1064: 25 E0          bcs      0x1046
1066: D7 1D          stb      0x1D
1068: 4F             clra     
1069: 5F             clrb     
106A: 39             rts      

106B: 17 01 26       lbsr     0x1194
106E: 27 31          beq      0x10A1
1070: 81 00          cmpa     #00
1072: 26 1D          bne      0x1091
1074: 1F 12          tfr      x,y
1076: D6 15          ldb      0x15
1078: 4F             clra     
1079: 34 10          pshs     x
107B: 17 01 BB       lbsr     0x1239
107E: 35 10          puls     x
1080: 25 03          bcs      0x1085
1082: EC A4          ldd      ,y
1084: 39             rts      

1085: 0D 00          tst      0x00
1087: 27 D9          beq      0x1062
1089: A6 84          lda      ,x
108B: 81 46          cmpa     #46
108D: 22 D3          bhi      0x1062
108F: 86 01          lda      #01
1091: 8D 03          bsr      0x1096
1093: 1C FE          andcc    #FE
1095: 39             rts      

1096: 5F             clrb     
1097: 81 01          cmpa     #01
1099: 27 77          beq      0x1112
109B: 81 03          cmpa     #03
109D: 26 0C          bne      0x10AB
109F: 6D A4          tst      ,y
10A1: 2A 5D          bpl      0x1100
10A3: 17 FF 02       lbsr     0x0FA8
10A6: 8D C3          bsr      0x106B
10A8: 43             coma     
10A9: 53             comb     
10AA: 39             rts      

10AB: 81 02          cmpa     #02
10AD: 26 54          bne      0x1103
10AF: A6 84          lda      ,x
10B1: 81 2A          cmpa     #2A
10B3: 26 09          bne      0x10BE
10B5: DC 02          ldd      0x02
10B7: 0D 00          tst      0x00
10B9: 27 02          beq      0x10BD
10BB: DC 20          ldd      0x20
10BD: 39             rts      

10BE: 81 2E          cmpa     #2E
10C0: 27 F3          beq      0x10B5
10C2: 81 27          cmpa     #27
10C4: 26 07          bne      0x10CD
10C6: 17 EF F9       lbsr     0x00C2
10C9: 1F 89          tfr      a,b
10CB: 4F             clra     
10CC: 39             rts      

10CD: 81 2B          cmpa     #2B
10CF: 27 9A          beq      0x106B
10D1: 81 2D          cmpa     #2D
10D3: 26 06          bne      0x10DB
10D5: 8D CC          bsr      0x10A3
10D7: C3 00 01       addd     #0x01
10DA: 39             rts      

10DB: C6 08          ldb      #08
10DD: 81 40          cmpa     #40
10DF: 27 27          beq      0x1108
10E1: 58             aslb     
10E2: 81 24          cmpa     #24
10E4: 27 22          beq      0x1108
10E6: C6 0A          ldb      #0A
10E8: 81 26          cmpa     #26
10EA: 27 1C          beq      0x1108
10EC: 81 28          cmpa     #28
10EE: 26 10          bne      0x1100
10F0: 17 FE 53       lbsr     0x0F46
10F3: 17 EF CC       lbsr     0x00C2
10F6: 81 29          cmpa     #29
10F8: 26 03          bne      0x10FD
10FA: DC 19          ldd      0x19
10FC: 39             rts      

10FD: C6 16          ldb      #16
10FF: 8C C6 1F       cmpx     #0xC61F
1102: 8C C6 16       cmpx     #0xC616
1105: 16 FE 94       lbra     0x0F9C

1108: 34 06          pshs     b,a
110A: 17 F0 41       lbsr     0x014E
110D: 81 02          cmpa     #02
110F: 27 7E          beq      0x118F
1111: 8C 34 06       cmpx     #0x3406
1114: DE 13          ldu      0x13
1116: A6 5F          lda      -0x01,u
1118: 81 44          cmpa     #44
111A: 26 1A          bne      0x1136
111C: E6 61          ldb      0x01,s
111E: 27 0A          beq      0x112A
1120: C1 0A          cmpb     #0A
1122: 27 0E          beq      0x1132
1124: C1 10          cmpb     #10
1126: 27 2F          beq      0x1157
1128: 20 65          bra      0x118F

112A: D6 08          ldb      0x08
112C: C1 0E          cmpb     #0E
112E: 24 27          bcc      0x1157
1130: C6 0A          ldb      #0A
1132: 0A 15          dec      0x15
1134: 20 21          bra      0x1157

1136: C6 08          ldb      #08
1138: 81 4F          cmpa     #4F
113A: 27 49          beq      0x1185
113C: 81 51          cmpa     #51
113E: 27 45          beq      0x1185
1140: 58             aslb     
1141: 81 48          cmpa     #48
1143: 27 40          beq      0x1185
1145: C6 0A          ldb      #0A
1147: 81 54          cmpa     #54
1149: 27 3A          beq      0x1185
114B: E6 61          ldb      0x01,s
114D: 26 08          bne      0x1157
114F: D6 08          ldb      0x08
1151: 0D 07          tst      0x07
1153: 27 02          beq      0x1157
1155: C6 0A          ldb      #0A
1157: DE 1B          ldu      0x1B
1159: 4F             clra     
115A: 5A             decb     
115B: ED E4          std      ,s
115D: A6 80          lda      ,x+
115F: 17 EF 88       lbsr     0x00EA
1162: 24 02          bcc      0x1166
1164: 80 07          suba     #07
1166: 80 30          suba     #30
1168: A1 61          cmpa     0x01,s
116A: 22 23          bhi      0x118F
116C: 34 02          pshs     a
116E: 10 AE 61       ldy      0x01,s
1171: 1F 30          tfr      u,d
1173: 33 CB          leau     d,u
1175: 31 3F          leay     -0x01,y
1177: 26 FA          bne      0x1173
1179: 35 02          puls     a
117B: 33 C6          leau     a,u
117D: 0A 15          dec      0x15
117F: 26 DC          bne      0x115D
1181: 1F 30          tfr      u,d
1183: 35 C0          puls     u,pc ;(pul? pc=rts)

1185: 0A 15          dec      0x15
1187: 6D 61          tst      0x01,s
1189: 27 CC          beq      0x1157
118B: E1 61          cmpb     0x01,s
118D: 27 C8          beq      0x1157
118F: C6 16          ldb      #16
1191: 16 FE 08       lbra     0x0F9C

1194: 17 EF B7       lbsr     0x014E
1197: 27 06          beq      0x119F
1199: E6 84          ldb      ,x
119B: C1 2E          cmpb     #2E
119D: 27 01          beq      0x11A0
119F: 39             rts      

11A0: DE 13          ldu      0x13
11A2: D6 12          ldb      0x12
11A4: 34 56          pshs     u,x,b,a
11A6: 17 EF A5       lbsr     0x014E
11A9: 81 00          cmpa     #00
11AB: 26 14          bne      0x11C1
11AD: 17 EF 12       lbsr     0x00C2
11B0: 81 2E          cmpa     #2E
11B2: 26 0D          bne      0x11C1
11B4: D6 15          ldb      0x15
11B6: 31 8D 00 4F    leay     0x4F,pc ; (0x1209)
11BA: 86 02          lda      #02
11BC: 17 F0 15       lbsr     0x01D4
11BF: 24 09          bcc      0x11CA
11C1: 35 56          puls     a,b,x,u
11C3: DF 13          stu      0x13
11C5: D7 12          stb      0x12
11C7: 1C FB          andcc    #FB
11C9: 39             rts      

11CA: 35 56          puls     a,b,x,u
11CC: 86 03          lda      #03
11CE: 20 F7          bra      0x11C7

11D0: 01             Illegal Opcode, changing to data
11D1: 2B 02          bmi      0x11D5
11D3: 00 01          neg      0x01
11D5: 2D 02          blt      0x11D9
11D7: 03 01          com      0x01
11D9: 2A 05          bpl      0x11E0
11DB: 21 01          brn      0x11DE
11DD: 2F 05          ble      0x11E4
11DF: 34 01          pshs     cc
11E1: 21 03          brn      0x11E6
11E3: 0B             Illegal Opcode, changing to data
11E4: 01             Illegal Opcode, changing to data
11E5: 26 04          bne      0x11EB
11E7: 06 01          ror      0x01
11E9: 3C 05          cwai     #05
11EB: 83 01 3D       subd     #0x013D
11EE: 01             Illegal Opcode, changing to data
11EF: 15             Illegal Opcode, changing to data
11F0: 01             Illegal Opcode, changing to data
11F1: 20 80          bra      0x1173

11F3: 00 01          neg      0x01
11F5: 09 80          rol      0x0080
11F7: 00 01          neg      0x01
11F9: 2C 80          bge      0x117B
11FB: 00 01          neg      0x01
11FD: 3B             rti      

11FE: 80 00          suba     #00
1200: 01             Illegal Opcode, changing to data
1201: 29 80          bvs      0x1183
1203: 00 01          neg      0x01
1205: 5D             tstb     
1206: 80 00          suba     #00
1208: 00 03          neg      0x03
120A: 41             Illegal Opcode, changing to data
120B: 4E             Illegal Opcode, changing to data
120C: 44             lsra     
120D: 04 06          lsr      0x06
120F: 03 44          com      0x44
1211: 49             rola     
1212: 56             rorb     
1213: 05             Illegal Opcode, changing to data
1214: 34 03          pshs     a,cc
1216: 45             Illegal Opcode, changing to data
1217: 51             Illegal Opcode, changing to data
1218: 55             Illegal Opcode, changing to data
1219: 01             Illegal Opcode, changing to data
121A: 15             Illegal Opcode, changing to data
121B: 03 4D          com      0x4D
121D: 4F             clra     
121E: 44             lsra     
121F: 05             Illegal Opcode, changing to data
1220: 7E 03 4E       jmp      0x034E

1223: 45             Illegal Opcode, changing to data
1224: 51             Illegal Opcode, changing to data
1225: 01             Illegal Opcode, changing to data
1226: 1C 03          andcc    #03
1228: 4E             Illegal Opcode, changing to data
1229: 4F             clra     
122A: 54             lsrb     
122B: 80 00          suba     #00
122D: 02             Illegal Opcode, changing to data
122E: 4F             clra     
122F: 52             Illegal Opcode, changing to data
1230: 03 0B          com      0x0B
1232: 03 58          com      0x58
1234: 4F             clra     
1235: 52             Illegal Opcode, changing to data
1236: 03 10          com      0x10
1238: 00 6F          neg      0x6F
123A: E2 C1          sbcb     ,u++
123C: 06 23          ror      0x23
123E: 02             Illegal Opcode, changing to data
123F: C6 06          ldb      #06
1241: 1C FE          andcc    #FE
1243: 34 57          pshs     u,x,b,a,cc
1245: 33 E4          leau     ,s
1247: 9E 0E          ldx      0x0E
1249: 86 02          lda      #02
124B: 1E 12          exg      x,y
124D: 17 EF 84       lbsr     0x01D4
1250: 1E 12          exg      x,y
1252: 24 30          bcc      0x1284
1254: 0D 0D          tst      0x0D
1256: 26 05          bne      0x125D
1258: 17 00 CD       lbsr     0x1328
125B: 20 5F          bra      0x12BC

125D: 9E 0E          ldx      0x0E
125F: CB 03          addb     #03
1261: 50             negb     
1262: 30 85          leax     b,x
1264: 9C 88          cpx      0x0088
1266: 22 05          bhi      0x126D
1268: C6 28          ldb      #28
126A: 16 03 BD       lbra     0x162A

126D: 9F 0E          stx      0x0E
126F: E6 41          ldb      0x01,u
1271: C4 08          andb     #08
1273: EA 42          orb      0x02,u
1275: E7 80          stb      ,x+
1277: E6 42          ldb      0x02,u
1279: A6 A0          lda      ,y+
127B: A7 80          sta      ,x+
127D: 5A             decb     
127E: 26 F9          bne      0x1279
1280: 6F 84          clr      ,x
1282: 6F 01          clr      0x01,x
1284: 1F 12          tfr      x,y
1286: E6 42          ldb      0x02,u
1288: 53             comb     
1289: 30 85          leax     b,x
128B: E6 84          ldb      ,x
128D: A6 41          lda      0x01,u
128F: 85 01          bita     #01
1291: 26 45          bne      0x12D8
1293: 85 08          bita     #08
1295: 26 2B          bne      0x12C2
1297: C5 08          bitb     #08
1299: 26 36          bne      0x12D1
129B: C5 80          bitb     #80
129D: 26 0F          bne      0x12AE
129F: 17 00 86       lbsr     0x1328
12A2: 0D 0D          tst      0x0D
12A4: 27 08          beq      0x12AE
12A6: 0D 83          tst      0x0083
12A8: 2A 04          bpl      0x12AE
12AA: CA 10          orb      #10
12AC: E7 84          stb      ,x
12AE: C5 40          bitb     #40
12B0: 27 02          beq      0x12B4
12B2: 8D 77          bsr      0x132B
12B4: C5 10          bitb     #10
12B6: 27 04          beq      0x12BC
12B8: 86 FF          lda      #FF
12BA: 97 06          sta      0x06
12BC: 35 57          puls     cc,a,b,x,u
12BE: AE A4          ldx      ,y
12C0: 35 84          puls     b,pc ;(pul? pc=rts)

12C2: C5 08          bitb     #08
12C4: 27 08          beq      0x12CE
12C6: C5 80          bitb     #80
12C8: 26 E4          bne      0x12AE
12CA: CA 10          orb      #10
12CC: E7 84          stb      ,x
12CE: 8D 52          bsr      0x1322
12D0: 8C 8D 55       cmpx     #0x8D55
12D3: 8C 8D 4F       cmpx     #0x8D4F
12D6: 20 E4          bra      0x12BC

12D8: 84 08          anda     #08
12DA: 34 02          pshs     a
12DC: A6 84          lda      ,x
12DE: 84 08          anda     #08
12E0: A8 E0          eora     ,s+
12E2: 26 36          bne      0x131A
12E4: C5 80          bitb     #80
12E6: 26 1C          bne      0x1304
12E8: C5 08          bitb     #08
12EA: 27 04          beq      0x12F0
12EC: C5 10          bitb     #10
12EE: 26 E4          bne      0x12D4
12F0: CA 80          orb      #80
12F2: E7 84          stb      ,x
12F4: A6 41          lda      0x01,u
12F6: 85 02          bita     #02
12F8: 27 04          beq      0x12FE
12FA: CA 20          orb      #20
12FC: E7 84          stb      ,x
12FE: AE 43          ldx      0x03,u
1300: AF A4          stx      ,y
1302: 20 B8          bra      0x12BC

1304: 34 10          pshs     x
1306: AE 43          ldx      0x03,u
1308: AC A4          cpx      ,y
130A: 35 10          puls     x
130C: 27 AE          beq      0x12BC
130E: E6 84          ldb      ,x
1310: C5 20          bitb     #20
1312: 27 06          beq      0x131A
1314: A6 41          lda      0x01,u
1316: 85 02          bita     #02
1318: 26 E4          bne      0x12FE
131A: CA 40          orb      #40
131C: E7 84          stb      ,x
131E: 8D 0B          bsr      0x132B
1320: 20 9A          bra      0x12BC

1322: 86 1C          lda      #1C
1324: 8C 86 23       cmpx     #0x8623
1327: 8C 86 2A       cmpx     #0x862A
132A: 8C 86 29       cmpx     #0x8629
132D: A7 47          sta      0x07,u
132F: A6 C4          lda      ,u
1331: 8A 01          ora      #01
1333: A7 C4          sta      ,u
1335: 39             rts      

1336: 42             Illegal Opcode, changing to data
1337: 41             Illegal Opcode, changing to data
1338: 44             lsra     
1339: A0 42          suba     0x02,u
133B: 55             Illegal Opcode, changing to data
133C: 46             rora     
133D: 46             rora     
133E: 45             Illegal Opcode, changing to data
133F: 52             Illegal Opcode, changing to data
1340: A0 44          suba     0x04,u
1342: 45             Illegal Opcode, changing to data
1343: 46             rora     
1344: 49             rola     
1345: 4E             Illegal Opcode, changing to data
1346: 45             Illegal Opcode, changing to data
1347: 44             lsra     
1348: A0 20          suba     0x00,y
134A: 45             Illegal Opcode, changing to data
134B: 52             Illegal Opcode, changing to data
134C: 52             Illegal Opcode, changing to data
134D: 4F             clra     
134E: D2 46          sbcb     0x46
1350: 55             Illegal Opcode, changing to data
1351: 4C             inca     
1352: CC 4C 49       ldd      #0x4C49
1355: 4E             Illegal Opcode, changing to data
1356: C5 4D          bitb     #4D
1358: 49             rola     
1359: 53             comb     
135A: 53             comb     
135B: 49             rola     
135C: 4E             Illegal Opcode, changing to data
135D: 47             asra     
135E: A0 4E          suba     0x0E,u
1360: 4F             clra     
1361: A0 4F          suba     0x0F,u
1363: 50             negb     
1364: 45             Illegal Opcode, changing to data
1365: 52             Illegal Opcode, changing to data
1366: 41             Illegal Opcode, changing to data
1367: 4E             Illegal Opcode, changing to data
1368: C4 53          andb     #53
136A: 59             rolb     
136B: 4D             tsta     
136C: 42             Illegal Opcode, changing to data
136D: 4F             clra     
136E: CC 4D 41       ldd      #0x4D41
1371: 43             coma     
1372: 52             Illegal Opcode, changing to data
1373: CF             Illegal Opcode, changing to data
1374: 20 54          bra      0x13CA

1376: 41             Illegal Opcode, changing to data
1377: 42             Illegal Opcode, changing to data
1378: 4C             inca     
1379: 45             Illegal Opcode, changing to data
137A: A0 45          suba     0x05,u
137C: 4E             Illegal Opcode, changing to data
137D: C4 20          andb     #20
137F: 57             asrb     
1380: 49             rola     
1381: 54             lsrb     
1382: 48             asla     
1383: 4F             clra     
1384: 55             Illegal Opcode, changing to data
1385: 54             lsrb     
1386: A0 80          suba     ,x+
1388: 44             lsra     
1389: 52             Illegal Opcode, changing to data
138A: 49             rola     
138B: 56             rorb     
138C: 45             Illegal Opcode, changing to data
138D: 20 4E          bra      0x13DD

138F: 4F             clra     
1390: 54             lsrb     
1391: 20 52          bra      0x13E5

1393: 45             Illegal Opcode, changing to data
1394: 41             Illegal Opcode, changing to data
1395: 44             lsra     
1396: D9 49          adcb     0x49
1398: 4F             clra     
1399: 03 80          com      0x0080
139B: 44             lsra     
139C: 4F             clra     
139D: 53             comb     
139E: 03 80          com      0x0080
13A0: 46             rora     
13A1: 49             rola     
13A2: 4C             inca     
13A3: 45             Illegal Opcode, changing to data
13A4: 20 4E          bra      0x13F4

13A6: 4F             clra     
13A7: 54             lsrb     
13A8: 20 46          bra      0x13F0

13AA: 4F             clra     
13AB: 55             Illegal Opcode, changing to data
13AC: 4E             Illegal Opcode, changing to data
13AD: C4 57          andb     #57
13AF: 2E 45          bgt      0x13F6
13B1: 4E             Illegal Opcode, changing to data
13B2: 44             lsra     
13B3: 20 4F          bra      0x1404

13B5: 46             rora     
13B6: 20 46          bra      0x13FE

13B8: 49             rola     
13B9: 4C             inca     
13BA: C5 44          bitb     #44
13BC: 49             rola     
13BD: 52             Illegal Opcode, changing to data
13BE: 45             Illegal Opcode, changing to data
13BF: 43             coma     
13C0: 54             lsrb     
13C1: 4F             clra     
13C2: 52             Illegal Opcode, changing to data
13C3: 59             rolb     
13C4: 20 04          bra      0x13CA

13C6: 80 44          suba     #44
13C8: 49             rola     
13C9: 53             comb     
13CA: 4B             Illegal Opcode, changing to data
13CB: 20 04          bra      0x13D1

13CD: 80 44          suba     #44
13CF: 49             rola     
13D0: 53             comb     
13D1: 4B             Illegal Opcode, changing to data
13D2: 20 57          bra      0x142B

13D4: 52             Illegal Opcode, changing to data
13D5: 49             rola     
13D6: 54             lsrb     
13D7: 45             Illegal Opcode, changing to data
13D8: 20 50          bra      0x142A

13DA: 52             Illegal Opcode, changing to data
13DB: 4F             clra     
13DC: 54             lsrb     
13DD: 45             Illegal Opcode, changing to data
13DE: 43             coma     
13DF: 54             lsrb     
13E0: 45             Illegal Opcode, changing to data
13E1: C4 00          andb     #00
13E3: 46             rora     
13E4: 49             rola     
13E5: 4C             inca     
13E6: 45             Illegal Opcode, changing to data
13E7: 20 44          bra      0x142D

13E9: 45             Illegal Opcode, changing to data
13EA: 53             comb     
13EB: 43             coma     
13EC: 52             Illegal Opcode, changing to data
13ED: 49             rola     
13EE: 50             negb     
13EF: 54             lsrb     
13F0: 4F             clra     
13F1: D2 46          sbcb     0x46
13F3: 4D             tsta     
13F4: 03 80          com      0x0080
13F6: 00 52          neg      0x52
13F8: 45             Illegal Opcode, changing to data
13F9: 43             coma     
13FA: 4F             clra     
13FB: 52             Illegal Opcode, changing to data
13FC: C4 49          andb     #49
13FE: 4C             inca     
13FF: 4C             inca     
1400: 45             Illegal Opcode, changing to data
1401: 47             asra     
1402: 41             Illegal Opcode, changing to data
1403: 4C             inca     
1404: 20 4E          bra      0x1454

1406: 45             Illegal Opcode, changing to data
1407: 53             comb     
1408: 54             lsrb     
1409: 49             rola     
140A: 4E             Illegal Opcode, changing to data
140B: C7             Illegal Opcode, changing to data
140C: 00 43          neg      0x43
140E: 4F             clra     
140F: 4D             tsta     
1410: 4D             tsta     
1411: 41             Illegal Opcode, changing to data
1412: 4E             Illegal Opcode, changing to data
1413: C4 00          andb     #00
1415: 05             Illegal Opcode, changing to data
1416: 20 4E          bra      0x1466

1418: 55             Illegal Opcode, changing to data
1419: 4D             tsta     
141A: 42             Illegal Opcode, changing to data
141B: 45             Illegal Opcode, changing to data
141C: D2 00          sbcb     0x00
141E: 50             negb     
141F: 41             Illegal Opcode, changing to data
1420: 52             Illegal Opcode, changing to data
1421: 41             Illegal Opcode, changing to data
1422: 4D             tsta     
1423: 45             Illegal Opcode, changing to data
1424: 54             lsrb     
1425: 45             Illegal Opcode, changing to data
1426: 52             Illegal Opcode, changing to data
1427: D3 05          addd     0x05
1429: 20 54          bra      0x147F

142B: 4F             clra     
142C: 4F             clra     
142D: 20 4C          bra      0x147B

142F: 4F             clra     
1430: 4E             Illegal Opcode, changing to data
1431: C7             Illegal Opcode, changing to data
1432: 01             Illegal Opcode, changing to data
1433: 04 80          lsr      0x0080
1435: 07 52          asr      0x52
1437: 4F             clra     
1438: 4F             clra     
1439: 4D             tsta     
143A: 20 42          bra      0x147E

143C: 45             Illegal Opcode, changing to data
143D: 54             lsrb     
143E: 57             asrb     
143F: 45             Illegal Opcode, changing to data
1440: 45             Illegal Opcode, changing to data
1441: 4E             Illegal Opcode, changing to data
1442: 20 4C          bra      0x1490

1444: 49             rola     
1445: 4E             Illegal Opcode, changing to data
1446: 45             Illegal Opcode, changing to data
1447: D3 07          addd     0x07
1449: 53             comb     
144A: 55             Illegal Opcode, changing to data
144B: 43             coma     
144C: 48             asla     
144D: 20 05          bra      0x1454

144F: 28 53          bvc      0x14A4
1451: A9 01          adca     0x01,x
1453: 45             Illegal Opcode, changing to data
1454: 4D             tsta     
1455: 50             negb     
1456: 54             lsrb     
1457: D9 53          adcb     0x53
1459: 45             Illegal Opcode, changing to data
145A: 41             Illegal Opcode, changing to data
145B: 52             Illegal Opcode, changing to data
145C: 43             coma     
145D: 48             asla     
145E: 20 46          bra      0x14A6

1460: 41             Illegal Opcode, changing to data
1461: 49             rola     
1462: 4C             inca     
1463: D3 45          addd     0x45
1465: 58             aslb     
1466: 50             negb     
1467: 52             Illegal Opcode, changing to data
1468: 45             Illegal Opcode, changing to data
1469: 53             comb     
146A: 53             comb     
146B: 49             rola     
146C: 4F             clra     
146D: 4E             Illegal Opcode, changing to data
146E: 03 80          com      0x0080
1470: 00 4D          neg      0x4D
1472: 45             Illegal Opcode, changing to data
1473: 4D             tsta     
1474: 4F             clra     
1475: 52             Illegal Opcode, changing to data
1476: D9 00          adcb     0x00
1478: 4C             inca     
1479: 41             Illegal Opcode, changing to data
147A: 42             Illegal Opcode, changing to data
147B: 45             Illegal Opcode, changing to data
147C: CC 00 08       ldd      #0x08
147F: 80 42          suba     #42
1481: 59             rolb     
1482: 54             lsrb     
1483: 45             Illegal Opcode, changing to data
1484: 20 4F          bra      0x14D5

1486: 56             rorb     
1487: 45             Illegal Opcode, changing to data
1488: 52             Illegal Opcode, changing to data
1489: 46             rora     
148A: 4C             inca     
148B: 4F             clra     
148C: D7 44          stb      0x44
148E: 50             negb     
148F: 03 80          com      0x0080
1491: 00 4F          neg      0x4F
1493: 50             negb     
1494: 43             coma     
1495: 4F             clra     
1496: 44             lsra     
1497: C5 06          bitb     #06
1499: 0C 20          inc      0x20
149B: 53             comb     
149C: 54             lsrb     
149D: 41             Illegal Opcode, changing to data
149E: 54             lsrb     
149F: 45             Illegal Opcode, changing to data
14A0: 4D             tsta     
14A1: 45             Illegal Opcode, changing to data
14A2: 4E             Illegal Opcode, changing to data
14A3: D4 06          andb     0x06
14A5: 49             rola     
14A6: 4E             Illegal Opcode, changing to data
14A7: 46             rora     
14A8: 4F             clra     
14A9: 52             Illegal Opcode, changing to data
14AA: 4D             tsta     
14AB: 41             Illegal Opcode, changing to data
14AC: 54             lsrb     
14AD: 49             rola     
14AE: 4F             clra     
14AF: CE 06 08       ldu      #0x0608
14B2: 80 52          suba     #52
14B4: 45             Illegal Opcode, changing to data
14B5: 47             asra     
14B6: 49             rola     
14B7: 53             comb     
14B8: 54             lsrb     
14B9: 45             Illegal Opcode, changing to data
14BA: 52             Illegal Opcode, changing to data
14BB: 03 80          com      0x0080
14BD: 0C 43          inc      0x43
14BF: 0D 43          tst      0x43
14C1: 4F             clra     
14C2: 4E             Illegal Opcode, changing to data
14C3: C4 0C          andb     #0C
14C5: 4D             tsta     
14C6: 0D 0A          tst      0x0A
14C8: 80 0A          suba     #0A
14CA: 20 46          bra      0x1512

14CC: 4F             clra     
14CD: 52             Illegal Opcode, changing to data
14CE: 57             asrb     
14CF: 41             Illegal Opcode, changing to data
14D0: 52             Illegal Opcode, changing to data
14D1: 44             lsra     
14D2: 20 52          bra      0x1526

14D4: 45             Illegal Opcode, changing to data
14D5: 46             rora     
14D6: 45             Illegal Opcode, changing to data
14D7: 52             Illegal Opcode, changing to data
14D8: 45             Illegal Opcode, changing to data
14D9: 4E             Illegal Opcode, changing to data
14DA: 43             coma     
14DB: C5 0A          bitb     #0A
14DD: 0B             Illegal Opcode, changing to data
14DE: 04 80          lsr      0x0080
14E0: 53             comb     
14E1: 59             rolb     
14E2: 4E             Illegal Opcode, changing to data
14E3: 54             lsrb     
14E4: 41             Illegal Opcode, changing to data
14E5: 58             aslb     
14E6: 03 80          com      0x0080
14E8: 00 42          neg      0x42
14EA: 52             Illegal Opcode, changing to data
14EB: 45             Illegal Opcode, changing to data
14EC: 41             Illegal Opcode, changing to data
14ED: 4B             Illegal Opcode, changing to data
14EE: 50             negb     
14EF: 4F             clra     
14F0: 49             rola     
14F1: 4E             Illegal Opcode, changing to data
14F2: D4 43          andb     0x43
14F4: 41             Illegal Opcode, changing to data
14F5: 4E             Illegal Opcode, changing to data
14F6: 27 54          beq      0x154C
14F8: 20 43          bra      0x153D

14FA: 4F             clra     
14FB: 4E             Illegal Opcode, changing to data
14FC: 54             lsrb     
14FD: 49             rola     
14FE: 4E             Illegal Opcode, changing to data
14FF: 55             Illegal Opcode, changing to data
1500: C5 09          bitb     #09
1502: 0B             Illegal Opcode, changing to data
1503: 04 80          lsr      0x0080
1505: 4D             tsta     
1506: 55             Illegal Opcode, changing to data
1507: 4C             inca     
1508: 54             lsrb     
1509: 49             rola     
150A: 50             negb     
150B: 4C             inca     
150C: 59             rolb     
150D: 20 02          bra      0x1511

150F: 09 80          rol      0x0080
1511: 55             Illegal Opcode, changing to data
1512: 4E             Illegal Opcode, changing to data
1513: 02             Illegal Opcode, changing to data
1514: 09 80          rol      0x0080
1516: 30 8D 1F 53    leax     0x1F53,pc ; (0x346D)
151A: 9F B3          stx      0x00B3
151C: 9F B9          stx      0x00B9
151E: CC FF FF       ldd      #0xFFFF
1521: ED 84          std      ,x
1523: BE 08 DC       ldx      0x08DC
1526: 9F 17          stx      0x17
1528: 30 1F          leax     -0x01,x
152A: 9F B7          stx      0x00B7
152C: 12             nop      
152D: 17 EB 68       lbsr     0x0098
1530: 0F 00          clr      0x00
1532: 0F DC          clr      0x00DC
1534: 86 55          lda      #55
1536: B7 00 71       sta      0x71
1539: CC FF FF       ldd      #0xFFFF
153C: FD 00 68       std      0x68
153F: 30 8D F9 C1    leax     0xF9C1,pc ; (0x10F04)
1543: BF 00 72       stx      0x72
1546: CC 00 0A       ldd      #0x0A
1549: DD BB          std      0x00BB
154B: CC 01 0D       ldd      #0x010D
154E: DD C7          std      0x00C7
1550: 9E B3          ldx      0x00B3
1552: 9F B5          stx      0x00B5
1554: 20 20          bra      0x1576

1556: C1 0A          cmpb     #0A
1558: 25 07          bcs      0x1561
155A: C1 14          cmpb     #14
155C: 24 03          bcc      0x1561
155E: 17 EE 40       lbsr     0x03A1
1561: 9E B3          ldx      0x00B3
1563: 9C B9          cpx      0x00B9
1565: 26 0A          bne      0x1571
1567: 30 8D EE 30    leax     0xEE30,pc ; (0x1039B)
156B: 9F B5          stx      0x00B5
156D: C1 0E          cmpb     #0E
156F: 25 46          bcs      0x15B7
1571: 17 EB 32       lbsr     0x00A6
1574: 20 09          bra      0x157F

1576: 0F 01          clr      0x01
1578: 0F 04          clr      0x04
157A: 0F D6          clr      0x00D6
157C: 17 EC E5       lbsr     0x0264
157F: 32 8D EA 7D    leas     0xEA7D,pc ; (0x10000)
1583: 0F D7          clr      0x00D7
1585: 0F D6          clr      0x00D6
1587: 0F D9          clr      0x00D9
1589: 0F D8          clr      0x00D8
158B: 0F DB          clr      0x00DB
158D: 0F 77          clr      0x77
158F: 0F 01          clr      0x01
1591: 0F 04          clr      0x04
1593: 0F C1          clr      0x00C1
1595: 0F 0D          clr      0x0D
1597: 86 10          lda      #10
1599: 97 08          sta      0x08
159B: 17 EC B6       lbsr     0x0254
159E: 0F 16          clr      0x16
15A0: 17 03 6C       lbsr     0x190F
15A3: 17 EB 19       lbsr     0x00BF
15A6: 27 D7          beq      0x157F
15A8: 8D 11          bsr      0x15BB
15AA: 31 8C 19       leay     0x19,pc ; (0x15C6)
15AD: C6 16          ldb      #16
15AF: 17 EC 3D       lbsr     0x01EF
15B2: 27 A2          beq      0x1556
15B4: C6 0D          ldb      #0D
15B6: 8C C6 14       cmpx     #0xC614
15B9: 20 6F          bra      0x162A

15BB: 81 61          cmpa     #61
15BD: 25 06          bcs      0x15C5
15BF: 81 7A          cmpa     #7A
15C1: 22 02          bhi      0x15C5
15C3: 88 20          eora     #20
15C5: 39             rts      

15C6: 1C D5          andcc    #D5
15C8: 41             Illegal Opcode, changing to data
15C9: 16 82 44       lbra     -0x67F0

15CC: 17 2F 46       lbsr     0x4515
15CF: 16 C1 48       lbra     -0x28E6

15D2: 16 D0 50       lbra     -0x19DB

15D5: 16 FC 4E       lbra     0x1226

15D8: 18             Illegal Opcode, changing to data
15D9: E3 0A          addd     0x0A,x
15DB: 18             Illegal Opcode, changing to data
15DC: DF 5E          stu      0x5E
15DE: 16 BF 54       lbra     -0x2ACB

15E1: 1B             Illegal Opcode, changing to data
15E2: 06 57          ror      0x57
15E4: 17 80 45       lbsr     -0x69D4
15E7: 16 A9 52       lbra     -0x40C4

15EA: 1B             Illegal Opcode, changing to data
15EB: 81 4D          cmpa     #4D
15ED: 1B             Illegal Opcode, changing to data
15EE: 80 43          suba     #43
15F0: 16 08 49       lbra     0x1E3C

15F3: 1B             Illegal Opcode, changing to data
15F4: 44             lsra     
15F5: 4C             inca     
15F6: 1B             Illegal Opcode, changing to data
15F7: 3C 56          cwai     #56
15F9: 1A AA          orcc     #AA
15FB: 4F             clra     
15FC: 07 15          asr      0x15
15FE: 51             Illegal Opcode, changing to data
15FF: 07 24          asr      0x24
1601: 4B             Illegal Opcode, changing to data
1602: 29 BA          bvs      0x15BE
1604: 5A             decb     
1605: 1C 56          andcc    #56
1607: 53             comb     
1608: 17 03 E8       lbsr     0x19F3
160B: 26 08          bne      0x1615
160D: D3 BB          addd     0x00BB
160F: 25 0C          bcs      0x161D
1611: 81 FA          cmpa     #FA
1613: 24 08          bcc      0x161D
1615: 34 06          pshs     b,a
1617: 8D 1B          bsr      0x1634
1619: 35 06          puls     a,b
161B: 20 F0          bra      0x160D

161D: 16 01 07       lbra     0x1727

1620: 17 03 4E       lbsr     0x1971
1623: 24 25          bcc      0x164A
1625: C6 11          ldb      #11
1627: 8C C6 12       cmpx     #0xC612
162A: 0F 01          clr      0x01
162C: 0F 04          clr      0x04
162E: 17 EB E3       lbsr     0x0214
1631: 16 FF 4B       lbra     0x157F

1634: 9E BF          ldx      0x00BF
1636: 10 A3 84       cmpd     ,x
1639: 24 ED          bcc      0x1628
163B: 17 03 33       lbsr     0x1971
163E: 25 E5          bcs      0x1625
1640: 17 ED E4       lbsr     0x0427
1643: 34 06          pshs     b,a
1645: 17 02 C6       lbsr     0x190E
1648: 35 06          puls     a,b
164A: 1F 01          tfr      d,x
164C: D6 12          ldb      0x12
164E: 4F             clra     
164F: 34 16          pshs     x,b,a
1651: 9E B9          ldx      0x00B9
1653: 30 01          leax     0x01,x
1655: DE B9          ldu      0x00B9
1657: 33 CB          leau     d,u
1659: 33 43          leau     0x03,u
165B: DF B9          stu      0x00B9
165D: 33 41          leau     0x01,u
165F: 1F 10          tfr      x,d
1661: 93 BF          subd     0x00BF
1663: 1F 02          tfr      d,y
1665: 31 21          leay     0x01,y
1667: 17 ED 63       lbsr     0x03CD
166A: 9F B5          stx      0x00B5
166C: DF BF          stu      0x00BF
166E: DE B5          ldu      0x00B5
1670: 35 16          puls     a,b,x
1672: AF C1          stx      ,u++
1674: 30 8D E5 83    leax     0xE583,pc ; (0xFBFB)
1678: E7 C0          stb      ,u+
167A: 27 05          beq      0x1681
167C: 1F 02          tfr      d,y
167E: 17 ED 43       lbsr     0x03C4
1681: 39             rts      

1682: 17 03 B0       lbsr     0x1A35
1685: DF B5          stu      0x00B5
1687: 9C B9          cpx      0x00B9
1689: 26 0C          bne      0x1697
168B: 10 AE C4       ldy      ,u
168E: 17 03 6C       lbsr     0x19FD
1691: DC C4          ldd      0x00C4
1693: DD B5          std      0x00B5
1695: DF BF          stu      0x00BF
1697: 34 10          pshs     x
1699: DC B9          ldd      0x00B9
169B: A3 E1          subd     ,s++
169D: 1F 02          tfr      d,y
169F: 31 22          leay     0x02,y
16A1: 17 ED 20       lbsr     0x03C4
16A4: 33 5E          leau     -0x02,u
16A6: DF B9          stu      0x00B9
16A8: 39             rts      

16A9: 17 03 47       lbsr     0x19F3
16AC: 10 26 03 13    lbne     0x19C3
16B0: DE BD          ldu      0x00BD
16B2: 9E BF          ldx      0x00BF
16B4: DF BF          stu      0x00BF
16B6: 34 06          pshs     b,a
16B8: 8D CB          bsr      0x1685
16BA: 35 06          puls     a,b
16BC: 16 FF 56       lbra     0x1615

16BF: 0C C1          inc      0x00C1
16C1: 17 F1 7C       lbsr     0x0840
16C4: 86 FF          lda      #FF
16C6: 97 04          sta      0x04
16C8: 8D 08          bsr      0x16D2
16CA: 17 F1 70       lbsr     0x083D
16CD: 0F 04          clr      0x04
16CF: 39             rts      

16D0: 0F 04          clr      0x04
16D2: 17 03 60       lbsr     0x1A35
16D5: 26 0A          bne      0x16E1
16D7: 10 8E 00 10    ldy      #0x10
16DB: 9E B9          ldx      0x00B9
16DD: DE B5          ldu      0x00B5
16DF: 20 04          bra      0x16E5

16E1: 10 8E FF FF    ldy      #0xFFFF
16E5: 34 10          pshs     x
16E7: 11 A3 E4       cmpu     ,s
16EA: 26 02          bne      0x16EE
16EC: 35 90          puls     x,pc ;(pul? pc=rts)

16EE: 17 F0 AE       lbsr     0x079F
16F1: 31 3F          leay     -0x01,y
16F3: 27 F7          beq      0x16EC
16F5: DF B5          stu      0x00B5
16F7: 17 ED 04       lbsr     0x03FE
16FA: 20 EB          bra      0x16E7

16FC: 17 02 F4       lbsr     0x19F3
16FF: 0F C2          clr      0x00C2
1701: 34 06          pshs     b,a
1703: 9E B3          ldx      0x00B3
1705: 9C B9          cpx      0x00B9
1707: 26 07          bne      0x1710
1709: 03 C2          com      0x00C2
170B: 35 06          puls     a,b
170D: 26 F2          bne      0x1701
170F: 39             rts      

1710: 30 02          leax     0x02,x
1712: 0D C2          tst      0x00C2
1714: 27 02          beq      0x1718
1716: ED 1E          std      -0x02,x
1718: 34 04          pshs     b
171A: E6 80          ldb      ,x+
171C: 3A             abx      
171D: 35 04          puls     b
171F: D3 BB          addd     0x00BB
1721: 25 04          bcs      0x1727
1723: 81 FA          cmpa     #FA
1725: 25 DE          bcs      0x1705
1727: C6 0E          ldb      #0E
1729: 8C C6 15       cmpx     #0xC615
172C: 16 FE FB       lbra     0x162A

172F: 33 8D E4 95    leau     0xE495,pc ; (0xFBC8)
1733: 5F             clrb     
1734: 17 E9 8B       lbsr     0x00C2
1737: 27 09          beq      0x1742
1739: A7 C0          sta      ,u+
173B: 5C             incb     
173C: D7 C7          stb      0x00C7
173E: C1 10          cmpb     #10
1740: 26 F2          bne      0x1734
1742: 9E B5          ldx      0x00B5
1744: 34 10          pshs     x
1746: 35 10          puls     x
1748: 30 02          leax     0x02,x
174A: E6 80          ldb      ,x+
174C: 3A             abx      
174D: 9C B9          cpx      0x00B9
174F: 24 D9          bcc      0x172A
1751: 34 10          pshs     x
1753: 30 02          leax     0x02,x
1755: E6 84          ldb      ,x
1757: 34 14          pshs     x,b
1759: 35 14          puls     b,x
175B: 30 01          leax     0x01,x
175D: 33 8D E4 67    leau     0xE467,pc ; (0xFBC8)
1761: D1 C7          cmpb     0x00C7
1763: 25 E1          bcs      0x1746
1765: 5A             decb     
1766: 34 14          pshs     x,b
1768: D6 C7          ldb      0x00C7
176A: A6 C0          lda      ,u+
176C: A1 80          cmpa     ,x+
176E: 26 E9          bne      0x1759
1770: 5A             decb     
1771: 26 F7          bne      0x176A
1773: 35 54          puls     b,x,u
1775: 10 8E 00 01    ldy      #0x01
1779: 9E B9          ldx      0x00B9
177B: 34 10          pshs     x
177D: 16 FF 75       lbra     0x16F5

1780: 17 02 B7       lbsr     0x1A3A
1783: 17 02 77       lbsr     0x19FD
1786: 10 26 02 39    lbne     0x19C3
178A: 34 20          pshs     y
178C: 17 04 9B       lbsr     0x1C2A
178F: 8D 1E          bsr      0x17AF
1791: 17 00 8A       lbsr     0x181E
1794: 17 EA CD       lbsr     0x0264
1797: 8D 16          bsr      0x17AF
1799: 0F C3          clr      0x00C3
179B: 5F             clrb     
179C: 17 EB 44       lbsr     0x02E3
179F: 17 E9 48       lbsr     0x00EA
17A2: 25 14          bcs      0x17B8
17A4: 80 30          suba     #30
17A6: 34 02          pshs     a
17A8: 86 0A          lda      #0A
17AA: 3D             mul      
17AB: EB E0          addb     ,s+
17AD: 20 ED          bra      0x179C

17AF: 30 8D E4 48    leax     0xE448,pc ; (0xFBFB)
17B3: EC 62          ldd      0x02,s
17B5: 16 EC 6F       lbra     0x0427

17B8: 5D             tstb     
17B9: 26 01          bne      0x17BC
17BB: 5C             incb     
17BC: 17 FD FC       lbsr     0x15BB
17BF: 81 41          cmpa     #41
17C1: 26 07          bne      0x17CA
17C3: 17 EA 9E       lbsr     0x0264
17C6: 35 20          puls     y
17C8: 20 B9          bra      0x1783

17CA: 81 4C          cmpa     #4C
17CC: 27 C3          beq      0x1791
17CE: 81 0D          cmpa     #0D
17D0: 26 13          bne      0x17E5
17D2: 8D 4A          bsr      0x181E
17D4: 17 EA 8D       lbsr     0x0264
17D7: DE BD          ldu      0x00BD
17D9: 9E BF          ldx      0x00BF
17DB: DF BF          stu      0x00BF
17DD: 17 FE A5       lbsr     0x1685
17E0: 35 06          puls     a,b
17E2: 16 FE 3B       lbra     0x1620

17E5: 81 45          cmpa     #45
17E7: 27 EB          beq      0x17D4
17E9: 81 51          cmpa     #51
17EB: 26 03          bne      0x17F0
17ED: 16 FD 86       lbra     0x1576

17F0: 81 49          cmpa     #49
17F2: 27 10          beq      0x1804
17F4: 81 58          cmpa     #58
17F6: 27 0A          beq      0x1802
17F8: 81 48          cmpa     #48
17FA: 26 18          bne      0x1814
17FC: 6F 84          clr      ,x
17FE: 96 C3          lda      0x00C3
1800: 97 12          sta      0x12
1802: 8D 1A          bsr      0x181E
1804: 17 EA DC       lbsr     0x02E3
1807: 81 0D          cmpa     #0D
1809: 27 C7          beq      0x17D2
180B: 81 1B          cmpa     #1B
180D: 27 8C          beq      0x179B
180F: 17 00 8C       lbsr     0x189E
1812: 20 F0          bra      0x1804

1814: 8D 02          bsr      0x1818
1816: 20 83          bra      0x179B

1818: 81 20          cmpa     #20
181A: 26 13          bne      0x182F
181C: 20 02          bra      0x1820

181E: C6 80          ldb      #80
1820: 6D 84          tst      ,x
1822: 27 0A          beq      0x182E
1824: A6 80          lda      ,x+
1826: 17 EA 3D       lbsr     0x0266
1829: 0C C3          inc      0x00C3
182B: 5A             decb     
182C: 26 F2          bne      0x1820
182E: 39             rts      

182F: 81 43          cmpa     #43
1831: 26 1A          bne      0x184D
1833: 6D 84          tst      ,x
1835: 27 15          beq      0x184C
1837: 17 EA A9       lbsr     0x02E3
183A: 81 09          cmpa     #09
183C: 27 04          beq      0x1842
183E: 81 20          cmpa     #20
1840: 25 F5          bcs      0x1837
1842: A7 80          sta      ,x+
1844: 17 EA 1F       lbsr     0x0266
1847: 0C C3          inc      0x00C3
1849: 5A             decb     
184A: 26 E7          bne      0x1833
184C: 39             rts      

184D: 81 44          cmpa     #44
184F: 26 0A          bne      0x185B
1851: 6D 84          tst      ,x
1853: 27 05          beq      0x185A
1855: 8D 52          bsr      0x18A9
1857: 5A             decb     
1858: 26 F7          bne      0x1851
185A: 39             rts      

185B: 81 53          cmpa     #53
185D: 27 06          beq      0x1865
185F: 81 4B          cmpa     #4B
1861: 26 28          bne      0x188B
1863: 1A 01          orcc     #01
1865: 34 01          pshs     cc
1867: 17 EA 79       lbsr     0x02E3
186A: 97 C6          sta      0x00C6
186C: A6 84          lda      ,x
186E: 27 15          beq      0x1885
1870: 35 01          puls     cc
1872: 34 01          pshs     cc
1874: 25 11          bcs      0x1887
1876: 8D 64          bsr      0x18DC
1878: 0C C3          inc      0x00C3
187A: 30 01          leax     0x01,x
187C: A6 84          lda      ,x
187E: 91 C6          cmpa     0x00C6
1880: 26 EA          bne      0x186C
1882: 5A             decb     
1883: 26 E7          bne      0x186C
1885: 35 81          puls     cc,pc ;(pul? pc=rts)

1887: 8D 20          bsr      0x18A9
1889: 20 F1          bra      0x187C

188B: 81 08          cmpa     #08
188D: 26 0E          bne      0x189D
188F: 34 04          pshs     b
1891: D6 C3          ldb      0x00C3
1893: 17 EA 0B       lbsr     0x02A1
1896: D7 C3          stb      0x00C3
1898: 35 04          puls     b
189A: 5A             decb     
189B: 26 F2          bne      0x188F
189D: 39             rts      

189E: 81 08          cmpa     #08
18A0: 26 15          bne      0x18B7
18A2: D6 C3          ldb      0x00C3
18A4: 17 E9 FA       lbsr     0x02A1
18A7: D7 C3          stb      0x00C3
18A9: 0A 12          dec      0x12
18AB: 1F 12          tfr      x,y
18AD: 6D A4          tst      ,y
18AF: 27 0E          beq      0x18BF
18B1: A6 21          lda      0x01,y
18B3: A7 A0          sta      ,y+
18B5: 20 F6          bra      0x18AD

18B7: 81 09          cmpa     #09
18B9: 27 05          beq      0x18C0
18BB: 81 1A          cmpa     #1A
18BD: 24 01          bcc      0x18C0
18BF: 39             rts      

18C0: D6 12          ldb      0x12
18C2: C1 80          cmpb     #80
18C4: 25 01          bcs      0x18C7
18C6: 39             rts      

18C7: 34 02          pshs     a
18C9: D0 C3          subb     0x00C3
18CB: 5C             incb     
18CC: 3A             abx      
18CD: A6 82          lda      ,-x
18CF: A7 01          sta      0x01,x
18D1: 5A             decb     
18D2: 26 F9          bne      0x18CD
18D4: 0C C3          inc      0x00C3
18D6: 0C 12          inc      0x12
18D8: 35 02          puls     a
18DA: A7 80          sta      ,x+
18DC: 16 E9 87       lbra     0x0266

18DF: 1A 01          orcc     #01
18E1: 20 02          bra      0x18E5

18E3: 1C FE          andcc    #FE
18E5: 34 01          pshs     cc
18E7: 9E B5          ldx      0x00B5
18E9: 10 AE 84       ldy      ,x
18EC: 17 01 0E       lbsr     0x19FD
18EF: 10 8E 00 01    ldy      #0x01
18F3: DE C4          ldu      0x00C4
18F5: 35 01          puls     cc
18F7: 25 09          bcs      0x1902
18F9: DE BF          ldu      0x00BF
18FB: 11 93 B9       cmpu     0x00B9
18FE: 26 02          bne      0x1902
1900: 1F 13          tfr      x,u
1902: 9E B9          ldx      0x00B9
1904: 34 10          pshs     x
1906: 16 FD EC       lbra     0x16F5

1909: 17 E9 C2       lbsr     0x02CE
190C: 20 02          bra      0x1910

190E: C6 5F          ldb      #5F
1910: 30 8D E2 E7    leax     0xE2E7,pc ; (0xFBFB)
1914: 9F 13          stx      0x13
1916: 0F 12          clr      0x12
1918: 17 E9 C8       lbsr     0x02E3
191B: 5D             tstb     
191C: 27 04          beq      0x1922
191E: 81 1B          cmpa     #1B
1920: 27 F6          beq      0x1918
1922: 81 15          cmpa     #15
1924: 27 E3          beq      0x1909
1926: 81 08          cmpa     #08
1928: 26 0D          bne      0x1937
192A: 34 04          pshs     b
192C: D6 12          ldb      0x12
192E: 17 E9 70       lbsr     0x02A1
1931: D7 12          stb      0x12
1933: 35 04          puls     b
1935: 20 E1          bra      0x1918

1937: 81 03          cmpa     #03
1939: 10 27 FC 39    lbeq     0x1576
193D: 81 0D          cmpa     #0D
193F: 26 03          bne      0x1944
1941: 16 E9 20       lbra     0x0264

1944: A7 84          sta      ,x
1946: 81 5E          cmpa     #5E
1948: 27 0F          beq      0x1959
194A: 81 0A          cmpa     #0A
194C: 26 0E          bne      0x195C
194E: 5D             tstb     
194F: 26 C7          bne      0x1918
1951: 0D 12          tst      0x12
1953: 26 C3          bne      0x1918
1955: 0C 12          inc      0x12
1957: 20 E8          bra      0x1941

1959: 5D             tstb     
195A: 27 F5          beq      0x1951
195C: 96 12          lda      0x12
195E: 81 80          cmpa     #80
1960: 27 B6          beq      0x1918
1962: A6 80          lda      ,x+
1964: 0C 12          inc      0x12
1966: 81 1B          cmpa     #1B
1968: 26 02          bne      0x196C
196A: 86 24          lda      #24
196C: 17 E8 F7       lbsr     0x0266
196F: 20 A7          bra      0x1918

1971: 9E B9          ldx      0x00B9
1973: 30 89 00 84    leax     0x0084,x
1977: 34 10          pshs     x
1979: 9E 17          ldx      0x17
197B: AC E1          cpx      ,s++
197D: 39             rts      

197E: 17 00 DE       lbsr     0x1A5F
1981: 27 13          beq      0x1996
1983: 81 21          cmpa     #21
1985: 27 13          beq      0x199A
1987: 81 3A          cmpa     #3A
1989: 27 3D          beq      0x19C8
198B: 8D 70          bsr      0x19FD
198D: 26 34          bne      0x19C3
198F: DE BD          ldu      0x00BD
1991: 9E BF          ldx      0x00BF
1993: C6 FF          ldb      #FF
1995: 39             rts      

1996: 8D EB          bsr      0x1983
1998: 5F             clrb     
1999: 39             rts      

199A: 8D 61          bsr      0x19FD
199C: 25 25          bcs      0x19C3
199E: 34 01          pshs     cc
19A0: 17 00 F0       lbsr     0x1A93
19A3: 27 32          beq      0x19D7
19A5: 31 A4          leay     ,y
19A7: 27 2E          beq      0x19D7
19A9: DE BD          ldu      0x00BD
19AB: 9E BF          ldx      0x00BF
19AD: 35 01          puls     cc
19AF: 29 04          bvs      0x19B5
19B1: 31 3F          leay     -0x01,y
19B3: 27 DE          beq      0x1993
19B5: EC 84          ldd      ,x
19B7: 83 FF FF       subd     #0xFFFF
19BA: 27 D7          beq      0x1993
19BC: 30 02          leax     0x02,x
19BE: E6 80          ldb      ,x+
19C0: 3A             abx      
19C1: 20 EE          bra      0x19B1

19C3: C6 13          ldb      #13
19C5: 16 FC 62       lbra     0x162A

19C8: 8D 33          bsr      0x19FD
19CA: 34 01          pshs     cc
19CC: 25 F5          bcs      0x19C3
19CE: DE BD          ldu      0x00BD
19D0: 35 01          puls     cc
19D2: 34 61          pshs     u,y,cc
19D4: 17 00 88       lbsr     0x1A5F
19D7: 10 27 00 7F    lbeq     0x1A5A
19DB: 35 01          puls     cc
19DD: 27 07          beq      0x19E6
19DF: 9E BF          ldx      0x00BF
19E1: 10 AC 84       cmpy     ,x
19E4: 25 DD          bcs      0x19C3
19E6: 8D 15          bsr      0x19FD
19E8: 29 D9          bvs      0x19C3
19EA: 10 AC E1       cmpy     ,s++
19ED: 25 6B          bcs      0x1A5A
19EF: 35 40          puls     u
19F1: 20 9E          bra      0x1991

19F3: 8D 6A          bsr      0x1A5F
19F5: 34 20          pshs     y
19F7: 8D 45          bsr      0x1A3E
19F9: 35 20          puls     y
19FB: 1F 20          tfr      y,d
19FD: 34 76          pshs     u,y,x,b,a
19FF: 9E B3          ldx      0x00B3
1A01: 1F 13          tfr      x,u
1A03: DF C4          stu      0x00C4
1A05: 1F 13          tfr      x,u
1A07: 10 AE 81       ldy      ,x++
1A0A: E6 80          ldb      ,x+
1A0C: 3A             abx      
1A0D: 10 AC 64       cmpy     0x04,s
1A10: 27 04          beq      0x1A16
1A12: 25 EF          bcs      0x1A03
1A14: 1F 31          tfr      u,x
1A16: 1C F4          andcc    #F4
1A18: 34 01          pshs     cc
1A1A: 27 0D          beq      0x1A29
1A1C: C6 02          ldb      #02
1A1E: 11 93 C4       cmpu     0x00C4
1A21: 27 08          beq      0x1A2B
1A23: 54             lsrb     
1A24: 11 93 B9       cmpu     0x00B9
1A27: 27 02          beq      0x1A2B
1A29: C6 08          ldb      #08
1A2B: 9F BF          stx      0x00BF
1A2D: DF BD          stu      0x00BD
1A2F: EA E0          orb      ,s+
1A31: 1F 9A          tfr      b,cc
1A33: 35 F6          puls     a,b,x,y,u,pc ;(pul? pc=rts)

1A35: 17 FF 46       lbsr     0x197E
1A38: 20 16          bra      0x1A50

1A3A: 8D 23          bsr      0x1A5F
1A3C: 20 12          bra      0x1A50

1A3E: 96 05          lda      0x05
1A40: 81 0D          cmpa     #0D
1A42: 27 4B          beq      0x1A8F
1A44: 81 2C          cmpa     #2C
1A46: 26 12          bne      0x1A5A
1A48: 8D 49          bsr      0x1A93
1A4A: 30 A4          leax     ,y
1A4C: 27 0C          beq      0x1A5A
1A4E: 9F BB          stx      0x00BB
1A50: 34 01          pshs     cc
1A52: 96 05          lda      0x05
1A54: 81 0D          cmpa     #0D
1A56: 26 02          bne      0x1A5A
1A58: 35 81          puls     cc,pc ;(pul? pc=rts)

1A5A: C6 0F          ldb      #0F
1A5C: 16 FB CB       lbra     0x162A

1A5F: 5F             clrb     
1A60: 9E B5          ldx      0x00B5
1A62: 17 E6 5A       lbsr     0x00BF
1A65: 27 24          beq      0x1A8B
1A67: 24 27          bcc      0x1A90
1A69: 81 1B          cmpa     #1B
1A6B: 27 1E          beq      0x1A8B
1A6D: 53             comb     
1A6E: 81 2E          cmpa     #2E
1A70: 27 16          beq      0x1A88
1A72: 81 21          cmpa     #21
1A74: 27 15          beq      0x1A8B
1A76: 9E B3          ldx      0x00B3
1A78: 81 23          cmpa     #23
1A7A: 27 0C          beq      0x1A88
1A7C: 80 2A          suba     #2A
1A7E: 26 DA          bne      0x1A5A
1A80: 43             coma     
1A81: 1F 02          tfr      d,y
1A83: 17 FF 77       lbsr     0x19FD
1A86: 9E C4          ldx      0x00C4
1A88: 17 E6 34       lbsr     0x00BF
1A8B: 10 AE 84       ldy      ,x
1A8E: 5D             tstb     
1A8F: 39             rts      

1A90: 17 E6 70       lbsr     0x0103
1A93: 10 9E 1B       ldy      0x1B
1A96: 5F             clrb     
1A97: 17 E6 25       lbsr     0x00BF
1A9A: 27 0D          beq      0x1AA9
1A9C: 25 BC          bcs      0x1A5A
1A9E: 17 E9 41       lbsr     0x03E2
1AA1: 25 B7          bcs      0x1A5A
1AA3: 17 E6 19       lbsr     0x00BF
1AA6: 24 F6          bcc      0x1A9E
1AA8: 53             comb     
1AA9: 39             rts      

1AAA: DE B9          ldu      0x00B9
1AAC: 33 43          leau     0x03,u
1AAE: 9E B7          ldx      0x00B7
1AB0: 10 9E 17       ldy      0x17
1AB3: 1F 30          tfr      u,d
1AB5: 34 76          pshs     u,y,x,b,a
1AB7: 30 8C 3A       leax     0x3A,pc ; (0x1AF4)
1ABA: 10 8E 00 03    ldy      #0x03
1ABE: 17 E7 5A       lbsr     0x021B
1AC1: EE E1          ldu      ,s++
1AC3: 17 E8 6A       lbsr     0x0330
1AC6: 17 E7 9B       lbsr     0x0264
1AC9: 31 3F          leay     -0x01,y
1ACB: 26 F1          bne      0x1ABE
1ACD: 30 19          leax     -0x07,x
1ACF: 17 E7 49       lbsr     0x021B
1AD2: 0F 16          clr      0x16
1AD4: 17 FE 37       lbsr     0x190E
1AD7: 17 01 67       lbsr     0x1C41
1ADA: 27 11          beq      0x1AED
1ADC: 1F 01          tfr      d,x
1ADE: AC E1          cpx      ,s++
1AE0: 25 0D          bcs      0x1AEF
1AE2: 30 1F          leax     -0x01,x
1AE4: 9C B7          cpx      0x00B7
1AE6: 22 07          bhi      0x1AEF
1AE8: 30 01          leax     0x01,x
1AEA: 9F 17          stx      0x17
1AEC: 39             rts      

1AED: 35 90          puls     x,pc ;(pul? pc=rts)

1AEF: C6 17          ldb      #17
1AF1: 16 FB 36       lbra     0x162A

1AF4: 46             rora     
1AF5: 49             rola     
1AF6: 52             Illegal Opcode, changing to data
1AF7: 53             comb     
1AF8: 54             lsrb     
1AF9: BD 4C 41       jsr      0x4C41
1AFC: 53             comb     
1AFD: 54             lsrb     
1AFE: BD 55 53       jsr      0x5553
1B01: 52             Illegal Opcode, changing to data
1B02: 4F             clra     
1B03: 52             Illegal Opcode, changing to data
1B04: 47             asra     
1B05: BD 17 F2       jsr      0x17F2
1B08: F0 8D 2C       subb     0x8D2C
1B0B: 17 EC E6       lbsr     0x07F4
1B0E: DE B3          ldu      0x00B3
1B10: 31 8C 12       leay     0x12,pc ; (0x1B25)
1B13: 9E B9          ldx      0x00B9
1B15: 34 30          pshs     y,x
1B17: 10 9E 1B       ldy      0x1B
1B1A: 96 D7          lda      0x00D7
1B1C: 97 D6          sta      0x00D6
1B1E: 26 02          bne      0x1B22
1B20: 03 01          com      0x01
1B22: 16 FB D0       lbra     0x16F5

1B25: 0F 01          clr      0x01
1B27: 0F D6          clr      0x00D6
1B29: 16 00 3F       lbra     0x1B6B

1B2C: 17 E5 F0       lbsr     0x011F
1B2F: 25 47          bcs      0x1B78
1B31: 17 E5 8E       lbsr     0x00C2
1B34: 26 42          bne      0x1B78
1B36: 39             rts      

1B37: 17 E5 E2       lbsr     0x011C
1B3A: 20 F3          bra      0x1B2F

1B3C: 8D EE          bsr      0x1B2C
1B3E: 17 ED 2A       lbsr     0x086B
1B41: 16 FA 32       lbra     0x1576

1B44: 17 F2 B2       lbsr     0x0DF9
1B47: 86 41          lda      #41
1B49: 17 F3 12       lbsr     0x0E5E
1B4C: 27 03          beq      0x1B51
1B4E: 17 F3 E4       lbsr     0x0F35
1B51: 17 FF D8       lbsr     0x1B2C
1B54: 17 EC 92       lbsr     0x07E9
1B57: 17 FE 17       lbsr     0x1971
1B5A: 25 15          bcs      0x1B71
1B5C: 9E B3          ldx      0x00B3
1B5E: 9F B5          stx      0x00B5
1B60: 9E B9          ldx      0x00B9
1B62: 0F E5          clr      0x00E5
1B64: 17 F3 32       lbsr     0x0E99
1B67: 26 0A          bne      0x1B73
1B69: 24 EC          bcc      0x1B57
1B6B: 17 EE 94       lbsr     0x0A02
1B6E: 16 FA 05       lbra     0x1576

1B71: C6 11          ldb      #11
1B73: 17 E6 9E       lbsr     0x0214
1B76: 20 F3          bra      0x1B6B

1B78: C6 09          ldb      #09
1B7A: 16 FA AD       lbra     0x162A

1B7D: 16 FE DA       lbra     0x1A5A

1B80: 86 4F          lda      #4F
1B82: 34 02          pshs     a
1B84: 17 FE D8       lbsr     0x1A5F
1B87: 81 2C          cmpa     #2C
1B89: 26 F2          bne      0x1B7D
1B8B: 34 20          pshs     y
1B8D: 17 FD EE       lbsr     0x197E
1B90: 27 EB          beq      0x1B7D
1B92: 34 50          pshs     u,x
1B94: 17 FE A7       lbsr     0x1A3E
1B97: 6D 66          tst      0x06,s
1B99: 27 0F          beq      0x1BAA
1B9B: EC E4          ldd      ,s
1B9D: A3 62          subd     0x02,s
1B9F: 9E B9          ldx      0x00B9
1BA1: 30 8B          leax     d,x
1BA3: 30 01          leax     0x01,x
1BA5: 17 FD CF       lbsr     0x1977
1BA8: 25 C7          bcs      0x1B71
1BAA: DE 1B          ldu      0x1B
1BAC: AE 62          ldx      0x02,s
1BAE: 33 41          leau     0x01,u
1BB0: E6 02          ldb      0x02,x
1BB2: 30 03          leax     0x03,x
1BB4: 3A             abx      
1BB5: AC E4          cpx      ,s
1BB7: 26 F5          bne      0x1BAE
1BB9: EC 64          ldd      0x04,s
1BBB: 1F 02          tfr      d,y
1BBD: 17 FE 3D       lbsr     0x19FD
1BC0: 1F 32          tfr      u,y
1BC2: 26 0C          bne      0x1BD0
1BC4: 9E BB          ldx      0x00BB
1BC6: 30 8B          leax     d,x
1BC8: AF 64          stx      0x04,s
1BCA: D3 BB          addd     0x00BB
1BCC: 10 25 FB 57    lbcs     0x1727
1BD0: 31 3F          leay     -0x01,y
1BD2: 26 F6          bne      0x1BCA
1BD4: 34 06          pshs     b,a
1BD6: 80 F9          suba     #F9
1BD8: 10 22 FB 4B    lbhi     0x1727
1BDC: 9E BF          ldx      0x00BF
1BDE: AE 84          ldx      ,x
1BE0: AC E4          cpx      ,s
1BE2: 10 23 FA 42    lbls     0x1628
1BE6: 34 40          pshs     u
1BE8: AE F8 06       ldx      [0x06,s]
1BEB: AF 66          stx      0x06,s
1BED: EC 68          ldd      0x08,s
1BEF: ED 64          std      0x04,s
1BF1: AE 66          ldx      0x06,s
1BF3: 1F 12          tfr      x,y
1BF5: 17 FE 05       lbsr     0x19FD
1BF8: DE BF          ldu      0x00BF
1BFA: EE C4          ldu      ,u
1BFC: EF 66          stu      0x06,s
1BFE: AC 68          cpx      0x08,s
1C00: 25 04          bcs      0x1C06
1C02: AC 62          cpx      0x02,s
1C04: 23 EB          bls      0x1BF1
1C06: 8D 22          bsr      0x1C2A
1C08: DE BD          ldu      0x00BD
1C0A: 6D 6A          tst      0x0A,s
1C0C: 26 03          bne      0x1C11
1C0E: 17 FA 74       lbsr     0x1685
1C11: EC 64          ldd      0x04,s
1C13: 1F 02          tfr      d,y
1C15: 17 FD E5       lbsr     0x19FD
1C18: 17 FA 2F       lbsr     0x164A
1C1B: EC 64          ldd      0x04,s
1C1D: D3 BB          addd     0x00BB
1C1F: 35 20          puls     y
1C21: 31 3F          leay     -0x01,y
1C23: 34 20          pshs     y
1C25: 26 C8          bne      0x1BEF
1C27: 32 6B          leas     0x0B,s
1C29: 39             rts      

1C2A: 33 8D DF CD    leau     0xDFCD,pc ; (0xFBFB)
1C2E: 9E BD          ldx      0x00BD
1C30: 30 02          leax     0x02,x
1C32: E6 80          ldb      ,x+
1C34: D7 12          stb      0x12
1C36: 27 06          beq      0x1C3E
1C38: 4F             clra     
1C39: 1F 02          tfr      d,y
1C3B: 17 E7 86       lbsr     0x03C4
1C3E: 6F C4          clr      ,u
1C40: 39             rts      

1C41: 17 E4 7B       lbsr     0x00BF
1C44: 27 0D          beq      0x1C53
1C46: 17 E4 BA       lbsr     0x0103
1C49: 17 F2 F3       lbsr     0x0F3F
1C4C: 10 25 F9 DA    lbcs     0x162A
1C50: 1C FB          andcc    #FB
1C52: 39             rts      

1C53: 4F             clra     
1C54: 5F             clrb     
1C55: 39             rts      

1C56: 9E DF          ldx      0x00DF
1C58: DE E1          ldu      0x00E1
1C5A: 34 50          pshs     u,x
1C5C: 34 50          pshs     u,x
1C5E: 10 8E 00 04    ldy      #0x04
1C62: 30 8D 00 53    leax     0x53,pc ; (0x1CB9)
1C66: 17 E5 B2       lbsr     0x021B
1C69: E6 E0          ldb      ,s+
1C6B: 26 03          bne      0x1C70
1C6D: 17 E5 E7       lbsr     0x0257
1C70: 4F             clra     
1C71: 1F 03          tfr      d,u
1C73: 34 20          pshs     y
1C75: 17 E6 F9       lbsr     0x0371
1C78: 35 20          puls     y
1C7A: 17 E5 E7       lbsr     0x0264
1C7D: 31 3F          leay     -0x01,y
1C7F: 26 E5          bne      0x1C66
1C81: 30 88 E4       leax     -0x1C,x
1C84: C6 04          ldb      #04
1C86: 34 04          pshs     b
1C88: 17 E5 90       lbsr     0x021B
1C8B: 34 10          pshs     x
1C8D: 0F 16          clr      0x16
1C8F: 17 FC 7C       lbsr     0x190E
1C92: 86 0A          lda      #0A
1C94: 97 08          sta      0x08
1C96: 8D A9          bsr      0x1C41
1C98: 27 08          beq      0x1CA2
1C9A: 86 04          lda      #04
1C9C: A0 62          suba     0x02,s
1C9E: 8B 03          adda     #03
1CA0: E7 E6          stb      a,s
1CA2: 35 10          puls     x
1CA4: 6A E4          dec      ,s
1CA6: 26 E0          bne      0x1C88
1CA8: 32 61          leas     0x01,s
1CAA: A6 E4          lda      ,s
1CAC: A1 61          cmpa     0x01,s
1CAE: 10 24 FD A8    lbcc     0x1A5A
1CB2: 35 50          puls     x,u
1CB4: 9F DF          stx      0x00DF
1CB6: DF E1          stu      0x00E1
1CB8: 39             rts      

1CB9: 4C             inca     
1CBA: 49             rola     
1CBB: 4E             Illegal Opcode, changing to data
1CBC: 43             coma     
1CBD: 4E             Illegal Opcode, changing to data
1CBE: 54             lsrb     
1CBF: BD 50 41       jsr      0x5041
1CC2: 47             asra     
1CC3: 4C             inca     
1CC4: 45             Illegal Opcode, changing to data
1CC5: 4E             Illegal Opcode, changing to data
1CC6: BD 50 41       jsr      0x5041
1CC9: 47             asra     
1CCA: 57             asrb     
1CCB: 49             rola     
1CCC: 44             lsra     
1CCD: BD 46 4C       jsr      0x464C
1CD0: 44             lsra     
1CD1: 46             rora     
1CD2: 4C             inca     
1CD3: 47             asra     
1CD4: BD 86 01       jsr      0x8601
1CD7: 97 DC          sta      0x00DC
1CD9: 17 F1 1D       lbsr     0x0DF9
1CDC: 17 0B 84       lbsr     0x2863
1CDF: 33 8D DE 9E    leau     0xDE9E,pc ; (0xFB81)
1CE3: C6 0C          ldb      #0C
1CE5: 6F C2          clr      ,-u
1CE7: 5A             decb     
1CE8: 26 FB          bne      0x1CE5
1CEA: 34 40          pshs     u
1CEC: 17 F0 0C       lbsr     0x0CFB
1CEF: 35 40          puls     u
1CF1: 25 21          bcs      0x1D14
1CF3: 34 14          pshs     x,b
1CF5: 17 E3 C7       lbsr     0x00BF
1CF8: 27 22          beq      0x1D1C
1CFA: 81 2F          cmpa     #2F
1CFC: 26 1B          bne      0x1D19
1CFE: 17 E4 4B       lbsr     0x014C
1D01: 31 8D 09 11    leay     0x0911,pc ; (0x2616)
1D05: 86 01          lda      #01
1D07: D6 15          ldb      0x15
1D09: 17 E4 C8       lbsr     0x01D4
1D0C: 25 0B          bcs      0x1D19
1D0E: A6 A4          lda      ,y
1D10: 6A C6          dec      a,u
1D12: 20 E1          bra      0x1CF5

1D14: C6 09          ldb      #09
1D16: 16 F9 11       lbra     0x162A

1D19: 16 FD 3E       lbra     0x1A5A

1D1C: 35 14          puls     b,x
1D1E: 96 7A          lda      0x7A
1D20: 9A 76          ora      0x76
1D22: 26 03          bne      0x1D27
1D24: 17 EA A8       lbsr     0x07CF
1D27: 0D 77          tst      0x77
1D29: 27 03          beq      0x1D2E
1D2B: 17 EB 12       lbsr     0x0840
1D2E: 9E 17          ldx      0x17
1D30: 30 1F          leax     -0x01,x
1D32: 9F 0E          stx      0x0E
1D34: 9F 10          stx      0x10
1D36: 6F 80          clr      ,x+
1D38: 96 75          lda      0x75
1D3A: 43             coma     
1D3B: 94 76          anda     0x76
1D3D: 26 02          bne      0x1D41
1D3F: 9E 1B          ldx      0x1B
1D41: 9F 81          stx      0x0081
1D43: 9F 8F          stx      0x008F
1D45: 30 1F          leax     -0x01,x
1D47: 9F 91          stx      0x0091
1D49: 86 FE          lda      #FE
1D4B: 97 83          sta      0x0083
1D4D: 97 0D          sta      0x0D
1D4F: 9E B3          ldx      0x00B3
1D51: 9F BF          stx      0x00BF
1D53: 86 0A          lda      #0A
1D55: 97 08          sta      0x08
1D57: CC 39 39       ldd      #0x3939
1D5A: 30 8D DF C8    leax     0xDFC8,pc ; (0xFD26)
1D5E: ED 81          std      ,x++
1D60: ED 84          std      ,x
1D62: DE 93          ldu      0x0093
1D64: 30 8D DE 2B    leax     0xDE2B,pc ; (0xFB93)
1D68: C6 14          ldb      #14
1D6A: 17 E3 4C       lbsr     0x00B9
1D6D: 03 A1          com      0x00A1
1D6F: 03 A2          com      0x00A2
1D71: 9E 81          ldx      0x0081
1D73: 9F 02          stx      0x02
1D75: 0C 83          inc      0x0083
1D77: 2B 30          bmi      0x1DA9
1D79: 0D 76          tst      0x76
1D7B: 27 2C          beq      0x1DA9
1D7D: 17 F0 5B       lbsr     0x0DDB
1D80: 1F 02          tfr      d,y
1D82: DE 88          ldu      0x0088
1D84: 33 41          leau     0x01,u
1D86: 9E 0E          ldx      0x0E
1D88: 17 E6 1F       lbsr     0x03AA
1D8B: DF 0E          stu      0x0E
1D8D: 30 CB          leax     d,u
1D8F: 33 1F          leau     -0x01,x
1D91: DF 10          stu      0x10
1D93: 96 78          lda      0x78
1D95: 9A 75          ora      0x75
1D97: 9A 80          ora      0x0080
1D99: 26 0E          bne      0x1DA9
1D9B: 0A 80          dec      0x0080
1D9D: 20 91          bra      0x1D30

1D9F: 0D D8          tst      0x00D8
1DA1: 27 03          beq      0x1DA6
1DA3: 17 EC 56       lbsr     0x09FC
1DA6: 16 07 50       lbra     0x24F9

1DA9: 9E B9          ldx      0x00B9
1DAB: 30 02          leax     0x02,x
1DAD: 9F 88          stx      0x0088
1DAF: 17 01 F3       lbsr     0x1FA5
1DB2: 32 8D E2 4A    leas     0xE24A,pc ; (0x10000)
1DB6: 0F 04          clr      0x04
1DB8: 17 E9 E4       lbsr     0x079F
1DBB: 25 E2          bcs      0x1D9F
1DBD: 0D 95          tst      0x0095
1DBF: 27 0D          beq      0x1DCE
1DC1: 0D 7C          tst      0x7C
1DC3: 27 09          beq      0x1DCE
1DC5: 17 EA 02       lbsr     0x07CA
1DC8: 25 D5          bcs      0x1D9F
1DCA: 80 43          suba     #43
1DCC: 97 7C          sta      0x7C
1DCE: 0F 95          clr      0x0095
1DD0: 0F 12          clr      0x12
1DD2: DC 02          ldd      0x02
1DD4: D3 A5          addd     0x00A5
1DD6: DD 02          std      0x02
1DD8: DD 84          std      0x0084
1DDA: 30 8D DD C7    leax     0xDDC7,pc ; (0xFBA5)
1DDE: C6 0E          ldb      #0E
1DE0: 17 E2 D6       lbsr     0x00B9
1DE3: 17 08 5D       lbsr     0x2643
1DE6: 30 8C C9       leax     -0x37,pc ; (0x1DB2)
1DE9: 34 10          pshs     x
1DEB: 17 E3 60       lbsr     0x014E
1DEE: 27 44          beq      0x1E34
1DF0: E6 84          ldb      ,x
1DF2: C0 20          subb     #20
1DF4: 27 29          beq      0x1E1F
1DF6: C0 E9          subb     #E9
1DF8: 27 25          beq      0x1E1F
1DFA: C0 21          subb     #21
1DFC: 27 36          beq      0x1E34
1DFE: D6 15          ldb      0x15
1E00: 81 00          cmpa     #00
1E02: 26 11          bne      0x1E15
1E04: C1 06          cmpb     #06
1E06: 22 0D          bhi      0x1E15
1E08: 17 E2 B7       lbsr     0x00C2
1E0B: 27 12          beq      0x1E1F
1E0D: 81 20          cmpa     #20
1E0F: 27 0E          beq      0x1E1F
1E11: 81 09          cmpa     #09
1E13: 27 0A          beq      0x1E1F
1E15: 96 9E          lda      0x009E
1E17: 9A 9D          ora      0x009D
1E19: 26 04          bne      0x1E1F
1E1B: C6 18          ldb      #18
1E1D: 20 43          bra      0x1E62

1E1F: 34 14          pshs     x,b
1E21: 17 E3 28       lbsr     0x014C
1E24: 27 06          beq      0x1E2C
1E26: E6 84          ldb      ,x
1E28: C1 2A          cmpb     #2A
1E2A: 26 0B          bne      0x1E37
1E2C: 86 18          lda      #18
1E2E: 6D E4          tst      ,s
1E30: 26 68          bne      0x1E9A
1E32: 32 63          leas     0x03,s
1E34: 16 07 2B       lbra     0x2562

1E37: 31 8D E5 FC    leay     0xE5FC,pc ; (0x10437)
1E3B: C6 FF          ldb      #FF
1E3D: 34 14          pshs     x,b
1E3F: 34 20          pshs     y
1E41: 6D A0          tst      ,y+
1E43: 2A 02          bpl      0x1E47
1E45: 6C 62          inc      0x02,s
1E47: 5F             clrb     
1E48: 5C             incb     
1E49: 6D A0          tst      ,y+
1E4B: 2A FB          bpl      0x1E48
1E4D: 5C             incb     
1E4E: 35 20          puls     y
1E50: D1 15          cmpb     0x15
1E52: 27 11          beq      0x1E65
1E54: 5C             incb     
1E55: 31 A5          leay     b,y
1E57: AE 61          ldx      0x01,s
1E59: 6D A4          tst      ,y
1E5B: 26 E2          bne      0x1E3F
1E5D: 16 08 D6       lbra     0x2736

1E60: C6 1C          ldb      #1C
1E62: 16 05 74       lbra     0x23D9

1E65: A6 A0          lda      ,y+
1E67: 84 7F          anda     #7F
1E69: A1 80          cmpa     ,x+
1E6B: 26 E8          bne      0x1E55
1E6D: 5A             decb     
1E6E: 26 F5          bne      0x1E65
1E70: 17 E2 4F       lbsr     0x00C2
1E73: 27 08          beq      0x1E7D
1E75: 81 20          cmpa     #20
1E77: 27 04          beq      0x1E7D
1E79: 81 09          cmpa     #09
1E7B: 26 E3          bne      0x1E60
1E7D: 17 E2 7F       lbsr     0x00FF
1E80: A6 A4          lda      ,y
1E82: 97 A8          sta      0x00A8
1E84: 35 12          puls     a,x
1E86: 0D 9E          tst      0x009E
1E88: 27 04          beq      0x1E8E
1E8A: 81 1C          cmpa     #1C
1E8C: 26 A4          bne      0x1E32
1E8E: 0D 9D          tst      0x009D
1E90: 27 08          beq      0x1E9A
1E92: 81 20          cmpa     #20
1E94: 27 04          beq      0x1E9A
1E96: 81 1F          cmpa     #1F
1E98: 26 98          bne      0x1E32
1E9A: 48             asla     
1E9B: 33 8D 01 2D    leau     0x012D,pc ; (0x1FCC)
1E9F: EE C6          ldu      a,u
1EA1: 35 24          puls     b,y
1EA3: 5D             tstb     
1EA4: 27 18          beq      0x1EBE
1EA6: 81 30          cmpa     #30
1EA8: 27 08          beq      0x1EB2
1EAA: 81 42          cmpa     #42
1EAC: 27 04          beq      0x1EB2
1EAE: 81 26          cmpa     #26
1EB0: 24 0C          bcc      0x1EBE
1EB2: 9E 02          ldx      0x02
1EB4: 86 01          lda      #01
1EB6: 17 F3 80       lbsr     0x1239
1EB9: 24 03          bcc      0x1EBE
1EBB: 17 05 22       lbsr     0x23E0
1EBE: 5D             tstb     
1EBF: 17 E1 E4       lbsr     0x00A6
1EC2: 17 06 74       lbsr     0x2539
1EC5: 9E 02          ldx      0x02
1EC7: 26 04          bne      0x1ECD
1EC9: DC A5          ldd      0x00A5
1ECB: 27 10          beq      0x1EDD
1ECD: 9C 91          cpx      0x0091
1ECF: 24 02          bcc      0x1ED3
1ED1: 9F 91          stx      0x0091
1ED3: DC A5          ldd      0x00A5
1ED5: 30 8B          leax     d,x
1ED7: 9C 8F          cpx      0x008F
1ED9: 23 02          bls      0x1EDD
1EDB: 9F 8F          stx      0x008F
1EDD: 0D 83          tst      0x0083
1EDF: 2B 39          bmi      0x1F1A
1EE1: 17 06 82       lbsr     0x2566
1EE4: 96 7A          lda      0x7A
1EE6: 43             coma     
1EE7: 94 A6          anda     0x00A6
1EE9: 27 2F          beq      0x1F1A
1EEB: DE 02          ldu      0x02
1EED: 9E A5          ldx      0x00A5
1EEF: 31 8D DC B5    leay     0xDCB5,pc ; (0xFBA8)
1EF3: 0D A7          tst      0x00A7
1EF5: 27 02          beq      0x1EF9
1EF7: 31 3F          leay     -0x01,y
1EF9: 0D 76          tst      0x76
1EFB: 27 23          beq      0x1F20
1EFD: DC 02          ldd      0x02
1EFF: 10 93 10       cmpd     0x10
1F02: 23 17          bls      0x1F1B
1F04: D3 A5          addd     0x00A5
1F06: 0D 80          tst      0x0080
1F08: 27 04          beq      0x1F0E
1F0A: 93 17          subd     0x17
1F0C: 22 0D          bhi      0x1F1B
1F0E: A6 A0          lda      ,y+
1F10: A7 C4          sta      ,u
1F12: A1 C0          cmpa     ,u+
1F14: 26 05          bne      0x1F1B
1F16: 30 1F          leax     -0x01,x
1F18: 26 F4          bne      0x1F0E
1F1A: 39             rts      

1F1B: C6 17          ldb      #17
1F1D: 16 04 B9       lbra     0x23D9

1F20: 1F 10          tfr      x,d
1F22: 0D 99          tst      0x0099
1F24: 26 04          bne      0x1F2A
1F26: 8D 2D          bsr      0x1F55
1F28: 20 13          bra      0x1F3D

1F2A: 11 93 97       cmpu     0x0097
1F2D: 27 02          beq      0x1F31
1F2F: 8D 22          bsr      0x1F53
1F31: 30 8D DD 4B    leax     0xDD4B,pc ; (0xFC80)
1F35: A6 01          lda      0x01,x
1F37: 81 80          cmpa     #80
1F39: 25 02          bcs      0x1F3D
1F3B: 8D 16          bsr      0x1F53
1F3D: 33 41          leau     0x01,u
1F3F: DF 97          stu      0x0097
1F41: 9E 9B          ldx      0x009B
1F43: A6 A0          lda      ,y+
1F45: A7 80          sta      ,x+
1F47: 9F 9B          stx      0x009B
1F49: 30 8D DD 33    leax     0xDD33,pc ; (0xFC80)
1F4D: 6C 01          inc      0x01,x
1F4F: 5A             decb     
1F50: 26 DF          bne      0x1F31
1F52: 39             rts      

1F53: 8D 16          bsr      0x1F6B
1F55: 34 16          pshs     x,b,a
1F57: 86 FF          lda      #FF
1F59: 97 99          sta      0x0099
1F5B: 30 8D DD 20    leax     0xDD20,pc ; (0xFC7F)
1F5F: 6F 80          clr      ,x+
1F61: DC 1B          ldd      0x1B
1F63: ED 81          std      ,x++
1F65: EF 81          stu      ,x++
1F67: 9F 9B          stx      0x009B
1F69: 35 96          puls     a,b,x,pc ;(pul? pc=rts)

1F6B: 34 76          pshs     u,y,x,b,a
1F6D: 0F 99          clr      0x0099
1F6F: 0F E5          clr      0x00E5
1F71: 31 8D DD 0A    leay     0xDD0A,pc ; (0xFC7F)
1F75: AE 21          ldx      0x01,y
1F77: 0D 7F          tst      0x7F
1F79: 26 0C          bne      0x1F87
1F7B: 30 05          leax     0x05,x
1F7D: A6 A0          lda      ,y+
1F7F: 8D 45          bsr      0x1FC6
1F81: 30 1F          leax     -0x01,x
1F83: 26 F8          bne      0x1F7D
1F85: 35 F6          puls     a,b,x,y,u,pc ;(pul? pc=rts)

1F87: A6 A4          lda      ,y
1F89: 26 0E          bne      0x1F99
1F8B: EC 23          ldd      0x03,y
1F8D: C3 00 05       addd     #0x05
1F90: 93 91          subd     0x0091
1F92: 17 ED 21       lbsr     0x0CB6
1F95: 31 25          leay     0x05,y
1F97: 20 E4          bra      0x1F7D

1F99: DC 8F          ldd      0x008F
1F9B: 93 91          subd     0x0091
1F9D: C3 00 05       addd     #0x05
1FA0: 17 ED 13       lbsr     0x0CB6
1FA3: 20 D6          bra      0x1F7B

1FA5: 0D D7          tst      0x00D7
1FA7: 27 20          beq      0x1FC9
1FA9: 96 7F          lda      0x7F
1FAB: 43             coma     
1FAC: 9A 7A          ora      0x7A
1FAE: 9A 76          ora      0x76
1FB0: 9A 83          ora      0x0083
1FB2: 26 17          bne      0x1FCB
1FB4: 0F E5          clr      0x00E5
1FB6: 86 00          lda      #00
1FB8: 8D 0C          bsr      0x1FC6
1FBA: DC 8F          ldd      0x008F
1FBC: 93 91          subd     0x0091
1FBE: 8D 02          bsr      0x1FC2
1FC0: DC 91          ldd      0x0091
1FC2: 8D 02          bsr      0x1FC6
1FC4: 1E 89          exg      a,b
1FC6: 16 EA 7D       lbra     0x0A46

1FC9: 0F 7F          clr      0x7F
1FCB: 39             rts      

1FCC: 20 1C          bra      0x1FEA

1FCE: 20 14          bra      0x1FE4

1FD0: 22 34          bhi      0x2006
1FD2: 22 3B          bhi      0x200F
1FD4: 22 5A          bhi      0x2030
1FD6: 22 54          bhi      0x202C
1FD8: 22 69          bhi      0x2043
1FDA: 20 10          bra      0x1FEC

1FDC: 22 76          bhi      0x2054
1FDE: 22 A8          bhi      0x1F88
1FE0: 22 AB          bhi      0x1F8D
1FE2: 23 05          bls      0x1FE9
1FE4: 23 0F          bls      0x1FF5
1FE6: 23 08          bls      0x1FF0
1FE8: 23 12          bls      0x1FFC
1FEA: 23 1F          bls      0x200B
1FEC: 23 33          bls      0x2021
1FEE: 23 3E          bls      0x202E
1FF0: 23 7A          bls      0x206C
1FF2: 23 85          bls      0x1F79
1FF4: 23 88          bls      0x1F7E
1FF6: 23 A7          bls      0x1F9F
1FF8: 23 B8          bls      0x1FB2
1FFA: 24 2F          bcc      0x202B
1FFC: 22 30          bhi      0x202E
1FFE: 28 6C          bvc      0x206C
2000: 28 93          bvc      0x1F95
2002: 28 B0          bvc      0x1FB4
2004: 28 D3          bvc      0x1FD9
2006: 28 F9          bvc      0x2001
2008: 29 62          bvs      0x206C
200A: 29 81          bvs      0x1F8D
200C: 29 98          bvs      0x1FA6
200E: 29 B3          bvs      0x1FC3
2010: 0A AF          dec      0x00AF
2012: 20 06          bra      0x201A

2014: D6 A8          ldb      0x00A8
2016: CA 40          orb      #40
2018: D7 A8          stb      0x00A8
201A: 0A B1          dec      0x00B1
201C: 17 E1 2D       lbsr     0x014C
201F: 27 60          beq      0x2081
2021: 1F 02          tfr      d,y
2023: E6 84          ldb      ,x
2025: C1 23          cmpb     #23
2027: 27 5D          beq      0x2086
2029: D6 A8          ldb      0x00A8
202B: CA 20          orb      #20
202D: D7 A8          stb      0x00A8
202F: 0C B0          inc      0x00B0
2031: 1F 20          tfr      y,d
2033: 81 06          cmpa     #06
2035: 27 1F          beq      0x2056
2037: E6 84          ldb      ,x
2039: C1 3E          cmpb     #3E
203B: 27 07          beq      0x2044
203D: C1 3C          cmpb     #3C
203F: 26 0A          bne      0x204B
2041: 0A AC          dec      0x00AC
2043: 8C 0A AD       cmpx     #0x0AAD
2046: 17 E1 05       lbsr     0x014E
2049: E6 84          ldb      ,x
204B: C1 5B          cmpb     #5B
204D: 26 0D          bne      0x205C
204F: 0A AE          dec      0x00AE
2051: 17 E0 FA       lbsr     0x014E
2054: 81 06          cmpa     #06
2056: 10 27 01 62    lbeq     0x21BC
205A: E6 84          ldb      ,x
205C: C1 2C          cmpb     #2C
205E: 10 27 01 7D    lbeq     0x21DF
2062: 17 E0 AA       lbsr     0x010F
2065: 17 03 63       lbsr     0x23CB
2068: 17 E0 57       lbsr     0x00C2
206B: 27 51          beq      0x20BE
206D: 81 2C          cmpa     #2C
206F: 26 4A          bne      0x20BB
2071: 17 E1 1F       lbsr     0x0193
2074: 10 27 00 9B    lbeq     0x2113
2078: 81 04          cmpa     #04
207A: 10 27 00 E0    lbeq     0x215E
207E: C6 19          ldb      #19
2080: 8C C6 1F       cmpx     #0xC61F
2083: 16 03 53       lbra     0x23D9

2086: 0D B1          tst      0x00B1
2088: 26 F4          bne      0x207E
208A: 17 03 3E       lbsr     0x23CB
208D: 96 A8          lda      0x00A8
208F: 84 0F          anda     #0F
2091: 81 03          cmpa     #03
2093: 27 0C          beq      0x20A1
2095: 81 07          cmpa     #07
2097: 27 E5          beq      0x207E
2099: 81 0C          cmpa     #0C
209B: 25 0D          bcs      0x20AA
209D: 85 01          bita     #01
209F: 26 DD          bne      0x207E
20A1: DC 19          ldd      0x19
20A3: DD A9          std      0x00A9
20A5: C6 03          ldb      #03
20A7: D7 A6          stb      0x00A6
20A9: 39             rts      

20AA: 17 00 FF       lbsr     0x21AC
20AD: 24 03          bcc      0x20B2
20AF: 17 00 A7       lbsr     0x2159
20B2: D6 1A          ldb      0x1A
20B4: D7 A9          stb      0x00A9
20B6: C6 02          ldb      #02
20B8: D7 A6          stb      0x00A6
20BA: 39             rts      

20BB: 17 E0 45       lbsr     0x0103
20BE: 0D AF          tst      0x00AF
20C0: 26 BC          bne      0x207E
20C2: 0D AE          tst      0x00AE
20C4: 27 11          beq      0x20D7
20C6: 0D AC          tst      0x00AC
20C8: 26 B4          bne      0x207E
20CA: 86 8F          lda      #8F
20CC: 97 A9          sta      0x00A9
20CE: DC 19          ldd      0x19
20D0: DD AA          std      0x00AA
20D2: C6 04          ldb      #04
20D4: D7 A6          stb      0x00A6
20D6: 39             rts      

20D7: 96 A8          lda      0x00A8
20D9: 84 CF          anda     #CF
20DB: 97 A8          sta      0x00A8
20DD: 0F B0          clr      0x00B0
20DF: 0D AC          tst      0x00AC
20E1: 26 16          bne      0x20F9
20E3: 0D AD          tst      0x00AD
20E5: 26 0A          bne      0x20F1
20E7: 0D 06          tst      0x06
20E9: 26 06          bne      0x20F1
20EB: 96 19          lda      0x19
20ED: 91 9A          cmpa     0x009A
20EF: 27 13          beq      0x2104
20F1: 86 30          lda      #30
20F3: 9A A8          ora      0x00A8
20F5: 97 A8          sta      0x00A8
20F7: 20 A8          bra      0x20A1

20F9: 96 19          lda      0x19
20FB: 91 9A          cmpa     0x009A
20FD: 27 05          beq      0x2104
20FF: C6 1B          ldb      #1B
2101: 17 02 DC       lbsr     0x23E0
2104: 96 A8          lda      0x00A8
2106: 0D B1          tst      0x00B1
2108: 27 03          beq      0x210D
210A: 84 BF          anda     #BF
210C: 8C 8A 10       cmpx     #0x8A10
210F: 97 A8          sta      0x00A8
2111: 20 9F          bra      0x20B2

2113: 0D AC          tst      0x00AC
2115: 26 18          bne      0x212F
2117: 0D AD          tst      0x00AD
2119: 26 27          bne      0x2142
211B: 0D 06          tst      0x06
211D: 26 23          bne      0x2142
211F: 9E 19          ldx      0x19
2121: 8C 00 0F       cmpx     #0x0F
2124: 2E 05          bgt      0x212B
2126: 8C FF F0       cmpx     #0xFFF0
2129: 2C 1F          bge      0x214A
212B: 8D 6F          bsr      0x219C
212D: 25 13          bcs      0x2142
212F: 8D 6B          bsr      0x219C
2131: 24 02          bcc      0x2135
2133: 8D 24          bsr      0x2159
2135: 96 A9          lda      0x00A9
2137: 8A 88          ora      #88
2139: 97 A9          sta      0x00A9
213B: 96 1A          lda      0x1A
213D: 97 AA          sta      0x00AA
213F: 16 FF 63       lbra     0x20A5

2142: 96 A9          lda      0x00A9
2144: 8A 89          ora      #89
2146: 97 A9          sta      0x00A9
2148: 20 84          bra      0x20CE

214A: 0D AE          tst      0x00AE
214C: 26 E7          bne      0x2135
214E: 96 1A          lda      0x1A
2150: 84 1F          anda     #1F
2152: 9A A9          ora      0x00A9
2154: 97 A9          sta      0x00A9
2156: 16 FF 5D       lbra     0x20B6

2159: C6 1A          ldb      #1A
215B: 16 02 82       lbra     0x23E0

215E: DC 19          ldd      0x19
2160: 93 02          subd     0x02
2162: 83 00 03       subd     #0x03
2165: 0D A7          tst      0x00A7
2167: 27 03          beq      0x216C
2169: 83 00 01       subd     #0x01
216C: DD 19          std      0x19
216E: 0D AC          tst      0x00AC
2170: 26 19          bne      0x218B
2172: 0D AD          tst      0x00AD
2174: 26 08          bne      0x217E
2176: 0D 06          tst      0x06
2178: 26 04          bne      0x217E
217A: 8D 20          bsr      0x219C
217C: 24 0D          bcc      0x218B
217E: 86 8D          lda      #8D
2180: 97 A9          sta      0x00A9
2182: 9E 19          ldx      0x19
2184: 30 1F          leax     -0x01,x
2186: 9F AA          stx      0x00AA
2188: 16 FF 47       lbra     0x20D2

218B: 86 8C          lda      #8C
218D: 97 A9          sta      0x00A9
218F: 8D 0B          bsr      0x219C
2191: 24 A8          bcc      0x213B
2193: 8D C4          bsr      0x2159
2195: CC FF FD       ldd      #0xFFFD
2198: DD 19          std      0x19
219A: 20 9F          bra      0x213B

219C: DC 19          ldd      0x19
219E: 10 83 00 7F    cmpd     #0x7F
21A2: 2E 06          bgt      0x21AA
21A4: 10 83 FF 80    cmpd     #0xFF80
21A8: 2C 10          bge      0x21BA
21AA: 43             coma     
21AB: 39             rts      

21AC: DC 19          ldd      0x19
21AE: 10 83 00 FF    cmpd     #0x00FF
21B2: 2E F6          bgt      0x21AA
21B4: 10 83 FF 00    cmpd     #0xFF00
21B8: 2D F0          blt      0x21AA
21BA: 4F             clra     
21BB: 39             rts      

21BC: 96 AC          lda      0x00AC
21BE: 9A AD          ora      0x00AD
21C0: 26 5C          bne      0x221E
21C2: 86 86          lda      #86
21C4: C1 08          cmpb     #08
21C6: 27 07          beq      0x21CF
21C8: 4A             deca     
21C9: C1 09          cmpb     #09
21CB: 27 02          beq      0x21CF
21CD: 86 8B          lda      #8B
21CF: 97 A9          sta      0x00A9
21D1: 17 DE EE       lbsr     0x00C2
21D4: 81 2C          cmpa     #2C
21D6: 26 46          bne      0x221E
21D8: 8D 53          bsr      0x222D
21DA: 26 42          bne      0x221E
21DC: 16 FE D7       lbra     0x20B6

21DF: 96 AC          lda      0x00AC
21E1: 9A AD          ora      0x00AD
21E3: 26 39          bne      0x221E
21E5: 8D 46          bsr      0x222D
21E7: 26 29          bne      0x2212
21E9: C6 84          ldb      #84
21EB: 17 DE D4       lbsr     0x00C2
21EE: 27 07          beq      0x21F7
21F0: 81 2B          cmpa     #2B
21F2: 27 09          beq      0x21FD
21F4: 17 DF 0C       lbsr     0x0103
21F7: DA A9          orb      0x00A9
21F9: D7 A9          stb      0x00A9
21FB: 20 DF          bra      0x21DC

21FD: C6 81          ldb      #81
21FF: 17 DE C0       lbsr     0x00C2
2202: 27 07          beq      0x220B
2204: 81 2B          cmpa     #2B
2206: 27 EF          beq      0x21F7
2208: 17 DE F8       lbsr     0x0103
220B: 0D AE          tst      0x00AE
220D: 26 0F          bne      0x221E
220F: 5A             decb     
2210: 20 E5          bra      0x21F7

2212: C6 82          ldb      #82
2214: D7 A9          stb      0x00A9
2216: 8D 0F          bsr      0x2227
2218: 26 07          bne      0x2221
221A: 0D AE          tst      0x00AE
221C: 27 BE          beq      0x21DC
221E: 16 FE 5D       lbra     0x207E

2221: 0C A9          inc      0x00A9
2223: 8D 02          bsr      0x2227
2225: 20 F5          bra      0x221C

2227: E6 84          ldb      ,x
2229: C1 2D          cmpb     #2D
222B: 26 F1          bne      0x221E
222D: 16 DF 63       lbra     0x0193

2230: 17 01 4D       lbsr     0x2380
2233: 8C 0C A6       cmpx     #0x0CA6
2236: 32 62          leas     0x02,s
2238: 16 FC 8A       lbra     0x1EC5

223B: 17 01 8D       lbsr     0x23CB
223E: 93 02          subd     0x02
2240: 83 00 02       subd     #0x02
2243: DD 19          std      0x19
2245: 17 FF 54       lbsr     0x219C
2248: 24 07          bcc      0x2251
224A: C6 1A          ldb      #1A
224C: 17 01 91       lbsr     0x23E0
224F: C6 FE          ldb      #FE
2251: 16 FE 60       lbra     0x20B4

2254: 17 00 C0       lbsr     0x2317
2257: C6 04          ldb      #04
2259: 8C C6 03       cmpx     #0xC603
225C: 4F             clra     
225D: 34 06          pshs     b,a
225F: 17 01 69       lbsr     0x23CB
2262: 93 02          subd     0x02
2264: A3 E1          subd     ,s++
2266: 16 FE 3A       lbra     0x20A3

2269: 17 DE 56       lbsr     0x00C2
226C: 81 23          cmpa     #23
226E: 26 AE          bne      0x221E
2270: 17 01 58       lbsr     0x23CB
2273: 16 FE 34       lbra     0x20AA

2276: 17 DE D5       lbsr     0x014E
2279: 10 27 FE 04    lbeq     0x2081
227D: 81 05          cmpa     #05
227F: 2D 9D          blt      0x221E
2281: 17 DE 3E       lbsr     0x00C2
2284: 81 2C          cmpa     #2C
2286: 26 96          bne      0x221E
2288: 58             aslb     
2289: 58             aslb     
228A: 58             aslb     
228B: 58             aslb     
228C: 34 04          pshs     b
228E: 17 DE BD       lbsr     0x014E
2291: 81 05          cmpa     #05
2293: 2D 89          blt      0x221E
2295: EA E0          orb      ,s+
2297: D7 A9          stb      0x00A9
2299: C4 88          andb     #88
229B: 27 45          beq      0x22E2
229D: C1 88          cmpb     #88
229F: 27 41          beq      0x22E2
22A1: C6 20          ldb      #20
22A3: 17 01 3A       lbsr     0x23E0
22A6: 20 3A          bra      0x22E2

22A8: 86 04          lda      #04
22AA: 8C 86 03       cmpx     #0x8603
22AD: 97 86          sta      0x0086
22AF: 17 DE 9C       lbsr     0x014E
22B2: 27 31          beq      0x22E5
22B4: 81 05          cmpa     #05
22B6: 2D 38          blt      0x22F0
22B8: D1 86          cmpb     0x0086
22BA: 10 27 FD C0    lbeq     0x207E
22BE: C1 05          cmpb     #05
22C0: 2F 02          ble      0x22C4
22C2: C0 02          subb     #02
22C4: 30 8C 34       leax     0x34,pc ; (0x22FB)
22C7: A6 85          lda      b,x
22C9: 95 A9          bita     0x00A9
22CB: 27 05          beq      0x22D2
22CD: C6 20          ldb      #20
22CF: 17 01 0E       lbsr     0x23E0
22D2: 9A A9          ora      0x00A9
22D4: 97 A9          sta      0x00A9
22D6: 17 DD E9       lbsr     0x00C2
22D9: 27 07          beq      0x22E2
22DB: 81 2C          cmpa     #2C
22DD: 27 D0          beq      0x22AF
22DF: 17 DE 21       lbsr     0x0103
22E2: 16 FD D1       lbra     0x20B6

22E5: 0D A9          tst      0x00A9
22E7: 26 09          bne      0x22F2
22E9: C6 20          ldb      #20
22EB: 17 00 F2       lbsr     0x23E0
22EE: 20 F2          bra      0x22E2

22F0: 0D A9          tst      0x00A9
22F2: 10 26 FD 88    lbne     0x207E
22F6: 17 DE 16       lbsr     0x010F
22F9: 20 EE          bra      0x22E9

22FB: 06 10          ror      0x10
22FD: 20 40          bra      0x233F

22FF: 40             nega     
2300: 80 02          suba     #02
2302: 04 01          lsr      0x01
2304: 08 8D          asl      0x008D
2306: 10 8C 8D 10    cmpy     #0x8D10
230A: 0C A6          inc      0x00A6
230C: 16 FF 25       lbra     0x2234

230F: 8D 06          bsr      0x2317
2311: 8C 8D 06       cmpx     #0x8D06
2314: 16 FD 05       lbra     0x201C

2317: 86 10          lda      #10
2319: 8C 86 11       cmpx     #0x8611
231C: 97 A7          sta      0x00A7
231E: 39             rts      

231F: 17 00 A9       lbsr     0x23CB
2322: D7 A8          stb      0x00A8
2324: 17 FE 85       lbsr     0x21AC
2327: 24 03          bcc      0x232C
2329: 17 FE 2D       lbsr     0x2159
232C: 86 03          lda      #03
232E: 97 B0          sta      0x00B0
2330: 0C A6          inc      0x00A6
2332: 39             rts      

2333: 17 00 95       lbsr     0x23CB
2336: DD A8          std      0x00A8
2338: 86 02          lda      #02
233A: 97 B0          sta      0x00B0
233C: 20 A4          bra      0x22E2

233E: 32 62          leas     0x02,s
2340: 86 03          lda      #03
2342: 97 B0          sta      0x00B0
2344: 17 DD 7B       lbsr     0x00C2
2347: 27 2D          beq      0x2376
2349: 97 87          sta      0x0087
234B: 17 DD 74       lbsr     0x00C2
234E: 27 26          beq      0x2376
2350: 91 87          cmpa     0x0087
2352: 10 27 01 E3    lbeq     0x2539
2356: 97 A8          sta      0x00A8
2358: 86 01          lda      #01
235A: 97 A6          sta      0x00A6
235C: 0D 83          tst      0x0083
235E: 2B 0A          bmi      0x236A
2360: 17 02 03       lbsr     0x2566
2363: 86 07          lda      #07
2365: 97 B0          sta      0x00B0
2367: 17 FB 7A       lbsr     0x1EE4
236A: DC 02          ldd      0x02
236C: D3 A5          addd     0x00A5
236E: DD 02          std      0x02
2370: DD 84          std      0x0084
2372: 0F A6          clr      0x00A6
2374: 20 D5          bra      0x234B

2376: C6 1E          ldb      #1E
2378: 20 5F          bra      0x23D9

237A: 8D 4F          bsr      0x23CB
237C: D3 02          addd     0x02
237E: DD 02          std      0x02
2380: 86 04          lda      #04
2382: 97 B0          sta      0x00B0
2384: 39             rts      

2385: 86 02          lda      #02
2387: 8C 86 01       cmpx     #0x8601
238A: 5D             tstb     
238B: 27 E9          beq      0x2376
238D: 34 06          pshs     b,a
238F: 8D 3A          bsr      0x23CB
2391: 1F 01          tfr      d,x
2393: 96 06          lda      0x06
2395: 94 83          anda     0x0083
2397: 35 06          puls     a,b
2399: 26 07          bne      0x23A2
239B: 17 EE 9B       lbsr     0x1239
239E: 24 02          bcc      0x23A2
23A0: 8D 3E          bsr      0x23E0
23A2: 86 05          lda      #05
23A4: 97 B0          sta      0x00B0
23A6: 39             rts      

23A7: 10 26 FA 70    lbne     0x1E1B
23AB: 8D 1E          bsr      0x23CB
23AD: D3 81          addd     0x0081
23AF: DD 02          std      0x02
23B1: DD 84          std      0x0084
23B3: 86 04          lda      #04
23B5: 97 B0          sta      0x00B0
23B7: 39             rts      

23B8: 26 75          bne      0x242F
23BA: 8D 0F          bsr      0x23CB
23BC: D7 9A          stb      0x009A
23BE: 17 FD DB       lbsr     0x219C
23C1: 24 03          bcc      0x23C6
23C3: 17 FD 93       lbsr     0x2159
23C6: 86 06          lda      #06
23C8: 97 B0          sta      0x00B0
23CA: 39             rts      

23CB: 17 EB 71       lbsr     0x0F3F
23CE: 24 08          bcc      0x23D8
23D0: C1 29          cmpb     #29
23D2: 25 05          bcs      0x23D9
23D4: 8D 0A          bsr      0x23E0
23D6: DC 19          ldd      0x19
23D8: 39             rts      

23D9: 30 8D F9 D5    leax     0xF9D5,pc ; (0x11DB2)
23DD: 34 10          pshs     x
23DF: 86 4F          lda      #4F
23E1: 34 72          pshs     u,y,x,a
23E3: 9E 93          ldx      0x0093
23E5: 30 01          leax     0x01,x
23E7: 9F 93          stx      0x0093
23E9: 0D 83          tst      0x0083
23EB: 2B 12          bmi      0x23FF
23ED: 31 8D DE 23    leay     0xDE23,pc ; (0x10214)
23F1: 8D 12          bsr      0x2405
23F3: 6D E4          tst      ,s
23F5: 27 06          beq      0x23FD
23F7: 31 8D 01 90    leay     0x0190,pc ; (0x258B)
23FB: 8D 08          bsr      0x2405
23FD: 0A 95          dec      0x0095
23FF: 35 F2          puls     a,x,y,u,pc ;(pul? pc=rts)

2401: 31 8D DE 15    leay     0xDE15,pc ; (0x1021A)
2405: 34 77          pshs     u,y,x,b,a,cc
2407: AD A4          jsr      ,y
2409: 0D 79          tst      0x79
240B: 26 0E          bne      0x241B
240D: 0D 77          tst      0x77
240F: 27 0A          beq      0x241B
2411: 0A 04          dec      0x04
2413: 35 77          puls     cc,a,b,x,y,u
2415: 34 77          pshs     u,y,x,b,a,cc
2417: AD A4          jsr      ,y
2419: 0F 04          clr      0x04
241B: 35 F7          puls     cc,a,b,x,y,u,pc ;(pul? pc=rts)

241D: C6 1D          ldb      #1D
241F: 17 DE 42       lbsr     0x0264
2422: 8D BC          bsr      0x23E0
2424: DC 1B          ldd      0x1B
2426: DD 19          std      0x19
2428: 0D 83          tst      0x0083
242A: 2A 27          bpl      0x2453
242C: 16 F9 20       lbra     0x1D4F

242F: 10 26 F9 E8    lbne     0x1E1B
2433: DC 1B          ldd      0x1B
2435: DD 19          std      0x19
2437: 17 DC 88       lbsr     0x00C2
243A: 27 0C          beq      0x2448
243C: 81 2A          cmpa     #2A
243E: 27 08          beq      0x2448
2440: 17 DC C0       lbsr     0x0103
2443: 8D 86          bsr      0x23CB
2445: 17 00 F1       lbsr     0x2539
2448: 0D 83          tst      0x0083
244A: 2B E0          bmi      0x242C
244C: 86 05          lda      #05
244E: 97 B0          sta      0x00B0
2450: 17 01 13       lbsr     0x2566
2453: 31 8D DE 0D    leay     0xDE0D,pc ; (0x10264)
2457: 8D AC          bsr      0x2405
2459: DE 93          ldu      0x0093
245B: 31 8D DF 11    leay     0xDF11,pc ; (0x10370)
245F: 8D A4          bsr      0x2405
2461: 30 8D 00 CC    leax     0x00CC,pc ; (0x2531)
2465: 17 FF 99       lbsr     0x2401
2468: 0D 7B          tst      0x7B
246A: 10 26 00 8B    lbne     0x24F9
246E: 96 77          lda      0x77
2470: 97 04          sta      0x04
2472: 27 05          beq      0x2479
2474: 17 E8 9C       lbsr     0x0D13
2477: 20 03          bra      0x247C

2479: 17 DD E8       lbsr     0x0264
247C: 0F 16          clr      0x16
247E: 9E 10          ldx      0x10
2480: 17 E3 1C       lbsr     0x079F
2483: 10 25 F9 18    lbcs     0x1D9F
2487: DE 0E          ldu      0x0E
2489: 34 50          pshs     u,x
248B: E6 C0          ldb      ,u+
248D: 27 30          beq      0x24BF
248F: 6D C4          tst      ,u
2491: 2B 21          bmi      0x24B4
2493: 6D 84          tst      ,x
2495: 27 18          beq      0x24AF
2497: C4 07          andb     #07
2499: 4F             clra     
249A: 1F 02          tfr      d,y
249C: E6 80          ldb      ,x+
249E: C4 07          andb     #07
24A0: A6 80          lda      ,x+
24A2: A1 C0          cmpa     ,u+
24A4: 2D 0E          blt      0x24B4
24A6: 2E 07          bgt      0x24AF
24A8: 5A             decb     
24A9: 27 09          beq      0x24B4
24AB: 31 3F          leay     -0x01,y
24AD: 26 F1          bne      0x24A0
24AF: 35 50          puls     x,u
24B1: 1F 31          tfr      u,x
24B3: 8C 35 50       cmpx     #0x3550
24B6: E6 C1          ldb      ,u++
24B8: C4 07          andb     #07
24BA: 5C             incb     
24BB: 33 C5          leau     b,u
24BD: 20 CA          bra      0x2489

24BF: 32 64          leas     0x04,s
24C1: DE 0E          ldu      0x0E
24C3: E6 80          ldb      ,x+
24C5: 27 2C          beq      0x24F3
24C7: 34 04          pshs     b
24C9: A6 84          lda      ,x
24CB: 8A 80          ora      #80
24CD: A7 84          sta      ,x
24CF: 17 DE 05       lbsr     0x02D7
24D2: 17 DD 8B       lbsr     0x0260
24D5: EE 84          ldu      ,x
24D7: 17 DE 55       lbsr     0x032F
24DA: 17 DD 83       lbsr     0x0260
24DD: 30 8C 4C       leax     0x4C,pc ; (0x252C)
24E0: 35 04          puls     b
24E2: C4 F8          andb     #F8
24E4: C8 80          eorb     #80
24E6: 17 DD 19       lbsr     0x0202
24E9: 20 8E          bra      0x2479

24EB: A6 C4          lda      ,u
24ED: 84 7F          anda     #7F
24EF: A7 C1          sta      ,u++
24F1: 33 C5          leau     b,u
24F3: E6 C0          ldb      ,u+
24F5: C4 07          andb     #07
24F7: 26 F2          bne      0x24EB
24F9: 0D 04          tst      0x04
24FB: 27 05          beq      0x2502
24FD: 0F 04          clr      0x04
24FF: 17 E3 3B       lbsr     0x083D
2502: 96 7A          lda      0x7A
2504: 9A 76          ora      0x76
2506: 26 21          bne      0x2529
2508: 0D 99          tst      0x0099
250A: 27 03          beq      0x250F
250C: 17 FA 5C       lbsr     0x1F6B
250F: DE 19          ldu      0x19
2511: 17 FA 41       lbsr     0x1F55
2514: 30 8D D7 67    leax     0xD767,pc ; (0xFC7F)
2518: 6A 84          dec      ,x
251A: 17 FA 4E       lbsr     0x1F6B
251D: 96 7E          lda      0x7E
251F: 94 D7          anda     0x00D7
2521: 27 03          beq      0x2526
2523: 17 E8 9F       lbsr     0x0DC5
2526: 17 E4 D9       lbsr     0x0A02
2529: 16 F0 24       lbra     0x1550

252C: D5 CD          bitb     0x00CD
252E: D3 80          addd     0x0080
2530: CF             Illegal Opcode, changing to data
2531: 20 54          bra      0x2587

2533: 4F             clra     
2534: 54             lsrb     
2535: 41             Illegal Opcode, changing to data
2536: 4C             inca     
2537: 03 D3          com      0x00D3
2539: 0D A7          tst      0x00A7
253B: 27 02          beq      0x253F
253D: 0C A6          inc      0x00A6
253F: 17 DB 80       lbsr     0x00C2
2542: 0D AE          tst      0x00AE
2544: 27 0D          beq      0x2553
2546: 81 5D          cmpa     #5D
2548: 26 13          bne      0x255D
254A: C6 10          ldb      #10
254C: DA A9          orb      0x00A9
254E: D7 A9          stb      0x00A9
2550: 17 DB 6F       lbsr     0x00C2
2553: 81 20          cmpa     #20
2555: 27 0A          beq      0x2561
2557: 81 09          cmpa     #09
2559: 27 06          beq      0x2561
255B: 81 0D          cmpa     #0D
255D: 10 26 FB 1D    lbne     0x207E
2561: 39             rts      

2562: 86 08          lda      #08
2564: 97 B0          sta      0x00B0
2566: 0D 83          tst      0x0083
2568: 2B 20          bmi      0x258A
256A: 96 A4          lda      0x00A4
256C: 9A 79          ora      0x79
256E: 26 1A          bne      0x258A
2570: 17 02 C7       lbsr     0x283A
2573: 27 15          beq      0x258A
2575: 96 77          lda      0x77
2577: 97 04          sta      0x04
2579: 0F 16          clr      0x16
257B: 8D 13          bsr      0x2590
257D: 0D 7D          tst      0x7D
257F: 27 05          beq      0x2586
2581: 17 DC E0       lbsr     0x0264
2584: 0F 16          clr      0x16
2586: 8D 03          bsr      0x258B
2588: 0F 04          clr      0x04
258A: 39             rts      

258B: DE B5          ldu      0x00B5
258D: 16 DE 6E       lbra     0x03FE

2590: D6 B0          ldb      0x00B0
2592: C1 05          cmpb     #05
2594: 2C 08          bge      0x259E
2596: DE 84          ldu      0x0084
2598: 17 DD 94       lbsr     0x032F
259B: 17 DC BF       lbsr     0x025D
259E: D6 B0          ldb      0x00B0
25A0: 30 8C 07       leax     0x07,pc ; (0x25AA)
25A3: A6 85          lda      b,x
25A5: 30 8C 0C       leax     0x0C,pc ; (0x25B4)
25A8: 6E 86          jmp      a,x

25AA: 00 00          neg      0x00
25AC: 36 43          pshu     s,a,cc
25AE: 58             aslb     
25AF: 33 3F          leau     -0x01,y
25B1: 4B             Illegal Opcode, changing to data
25B2: 58             aslb     
25B3: 58             aslb     
25B4: 9E A5          ldx      0x00A5
25B6: 0D A7          tst      0x00A7
25B8: 27 06          beq      0x25C0
25BA: 30 1F          leax     -0x01,x
25BC: D6 A7          ldb      0x00A7
25BE: 8D 21          bsr      0x25E1
25C0: D6 A8          ldb      0x00A8
25C2: 8D 1D          bsr      0x25E1
25C4: 8D 43          bsr      0x2609
25C6: 31 8D D5 DF    leay     0xD5DF,pc ; (0xFBA9)
25CA: 0D B0          tst      0x00B0
25CC: 27 09          beq      0x25D7
25CE: 30 1F          leax     -0x01,x
25D0: E6 A0          ldb      ,y+
25D2: 8D 0D          bsr      0x25E1
25D4: 17 DC 86       lbsr     0x025D
25D7: 30 1F          leax     -0x01,x
25D9: 27 31          beq      0x260C
25DB: E6 A0          ldb      ,y+
25DD: 8D 02          bsr      0x25E1
25DF: 20 F6          bra      0x25D7

25E1: 4F             clra     
25E2: 1F 03          tfr      d,u
25E4: 16 DD 44       lbra     0x032B

25E7: DE 19          ldu      0x19
25E9: 8C DE A8       cmpx     #0xDEA8
25EC: 8D 1B          bsr      0x2609
25EE: 17 DD 3E       lbsr     0x032F
25F1: 20 19          bra      0x260C

25F3: D6 1A          ldb      0x1A
25F5: D7 A8          stb      0x00A8
25F7: 8D 10          bsr      0x2609
25F9: D6 A8          ldb      0x00A8
25FB: 8D E4          bsr      0x25E1
25FD: 20 0D          bra      0x260C

25FF: 30 8C 86       leax     -0x7A,pc ; (0x2588)
2602: AF E4          stx      ,s
2604: 8D F1          bsr      0x25F7
2606: 16 DC 5B       lbra     0x0264

2609: C6 0A          ldb      #0A
260B: 8C C6 13       cmpx     #0xC613
260E: 17 DC 4C       lbsr     0x025D
2611: D1 16          cmpb     0x16
2613: 26 F9          bne      0x260E
2615: 39             rts      

2616: 02             Illegal Opcode, changing to data
2617: 41             Illegal Opcode, changing to data
2618: 4F             clra     
2619: 00 02          neg      0x02
261B: 49             rola     
261C: 4D             tsta     
261D: 01             Illegal Opcode, changing to data
261E: 02             Illegal Opcode, changing to data
261F: 4C             inca     
2620: 50             negb     
2621: 02             Illegal Opcode, changing to data
2622: 02             Illegal Opcode, changing to data
2623: 4D             tsta     
2624: 4F             clra     
2625: 03 02          com      0x02
2627: 4E             Illegal Opcode, changing to data
2628: 4C             inca     
2629: 04 02          lsr      0x02
262B: 4E             Illegal Opcode, changing to data
262C: 4F             clra     
262D: 05             Illegal Opcode, changing to data
262E: 02             Illegal Opcode, changing to data
262F: 4E             Illegal Opcode, changing to data
2630: 53             comb     
2631: 06 02          ror      0x02
2633: 57             asrb     
2634: 45             Illegal Opcode, changing to data
2635: 07 02          asr      0x02
2637: 53             comb     
2638: 53             comb     
2639: 08 02          asl      0x02
263B: 57             asrb     
263C: 53             comb     
263D: 09 02          rol      0x02
263F: 53             comb     
2640: 52             Illegal Opcode, changing to data
2641: 0A 00          dec      0x00
2643: 9E BF          ldx      0x00BF
2645: 9C B9          cpx      0x00B9
2647: 26 06          bne      0x264F
2649: 0D D8          tst      0x00D8
264B: 10 27 FD CE    lbeq     0x241D
264F: 0D 9F          tst      0x009F
2651: 26 48          bne      0x269B
2653: 0D D8          tst      0x00D8
2655: 26 15          bne      0x266C
2657: 9E BF          ldx      0x00BF
2659: 9F B5          stx      0x00B5
265B: 8D 06          bsr      0x2663
265D: 4F             clra     
265E: 30 8B          leax     d,x
2660: 9F BF          stx      0x00BF
2662: 39             rts      

2663: E6 02          ldb      0x02,x
2665: D7 12          stb      0x12
2667: 30 03          leax     0x03,x
2669: 9F 13          stx      0x13
266B: 39             rts      

266C: 86 01          lda      #01
266E: 97 E5          sta      0x00E5
2670: 30 8D D5 87    leax     0xD587,pc ; (0xFBFB)
2674: 9F B5          stx      0x00B5
2676: 0A D7          dec      0x00D7
2678: 17 E8 1F       lbsr     0x0E9A
267B: 34 01          pshs     cc
267D: 0C D7          inc      0x00D7
267F: 35 01          puls     cc
2681: 26 0D          bne      0x2690
2683: 25 0E          bcs      0x2693
2685: 9E B5          ldx      0x00B5
2687: 8D DA          bsr      0x2663
2689: 0D 9E          tst      0x009E
268B: 10 26 01 8D    lbne     0x281C
268F: 39             rts      

2690: 17 FD 4D       lbsr     0x23E0
2693: 0F D8          clr      0x00D8
2695: 17 E3 64       lbsr     0x09FC
2698: 16 F7 17       lbra     0x1DB2

269B: 17 FF B9       lbsr     0x2657
269E: CB 03          addb     #03
26A0: 9E B5          ldx      0x00B5
26A2: 33 8D D5 55    leau     0xD555,pc ; (0xFBFB)
26A6: 8D 7A          bsr      0x2722
26A8: 33 43          leau     0x03,u
26AA: DF 13          stu      0x13
26AC: 17 DA 10       lbsr     0x00BF
26AF: 27 77          beq      0x2728
26B1: 81 5C          cmpa     #5C
26B3: 26 F7          bne      0x26AC
26B5: 17 DA 0A       lbsr     0x00C2
26B8: 81 2E          cmpa     #2E
26BA: 27 47          beq      0x2703
26BC: 17 DA 2B       lbsr     0x00EA
26BF: 24 09          bcc      0x26CA
26C1: 17 DA 33       lbsr     0x00F7
26C4: 10 25 01 91    lbcs     0x2859
26C8: 80 07          suba     #07
26CA: 80 30          suba     #30
26CC: 17 00 CD       lbsr     0x279C
26CF: 86 02          lda      #02
26D1: 34 02          pshs     a
26D3: DE 13          ldu      0x13
26D5: 31 8D D5 22    leay     0xD522,pc ; (0xFBFB)
26D9: 96 B2          lda      0x00B2
26DB: A0 E4          suba     ,s
26DD: 33 C6          leau     a,u
26DF: AB 22          adda     0x02,y
26E1: 81 80          cmpa     #80
26E3: 10 22 01 6F    lbhi     0x2856
26E7: A7 22          sta      0x02,y
26E9: D6 12          ldb      0x12
26EB: 9E 13          ldx      0x13
26ED: 8D 33          bsr      0x2722
26EF: 35 02          puls     a
26F1: 40             nega     
26F2: 30 8D D6 34    leax     0xD634,pc ; (0xFD2A)
26F6: DE 13          ldu      0x13
26F8: 33 C6          leau     a,u
26FA: D6 B2          ldb      0x00B2
26FC: 8D 24          bsr      0x2722
26FE: 33 C5          leau     b,u
2700: 16 FF A7       lbra     0x26AA

2703: 17 D9 BC       lbsr     0x00C2
2706: 17 D9 EE       lbsr     0x00F7
2709: 10 25 01 4C    lbcs     0x2859
270D: C6 05          ldb      #05
270F: D7 B2          stb      0x00B2
2711: 5A             decb     
2712: 33 8D D6 14    leau     0xD614,pc ; (0xFD2A)
2716: A7 C0          sta      ,u+
2718: 30 8D D6 0A    leax     0xD60A,pc ; (0xFD26)
271C: 8D 04          bsr      0x2722
271E: 86 03          lda      #03
2720: 20 AF          bra      0x26D1

2722: 4F             clra     
2723: 1F 02          tfr      d,y
2725: 16 DC 82       lbra     0x03AA

2728: 30 8D D4 CF    leax     0xD4CF,pc ; (0xFBFB)
272C: 9F B5          stx      0x00B5
272E: CC FF FF       ldd      #0xFFFF
2731: ED 84          std      ,x
2733: 16 FF 2D       lbra     0x2663

2736: 35 24          puls     b,y
2738: 96 9E          lda      0x009E
273A: 9A 9D          ora      0x009D
273C: 10 26 F6 F2    lbne     0x1E32
2740: 86 08          lda      #08
2742: D6 15          ldb      0x15
2744: 17 EA F2       lbsr     0x1239
2747: 10 25 FC 8E    lbcs     0x23D9
274B: 0D 9F          tst      0x009F
274D: 10 26 01 02    lbne     0x2853
2751: 0A 9F          dec      0x009F
2753: DE BF          ldu      0x00BF
2755: DF 8A          stu      0x008A
2757: 9F BF          stx      0x00BF
2759: 17 D9 A3       lbsr     0x00FF
275C: 9E 13          ldx      0x13
275E: 9F 8D          stx      0x008D
2760: D6 12          ldb      0x12
2762: D7 8C          stb      0x008C
2764: 86 7F          lda      #7F
2766: 17 00 33       lbsr     0x279C
2769: 4C             inca     
276A: 1F 89          tfr      a,b
276C: 4F             clra     
276D: 1F 01          tfr      d,x
276F: 31 8C 26       leay     0x26,pc ; (0x2798)
2772: 86 03          lda      #03
2774: C6 04          ldb      #04
2776: 17 EA C0       lbsr     0x1239
2779: 10 25 FC 5C    lbcs     0x23D9
277D: 31 8D D5 A9    leay     0xD5A9,pc ; (0xFD2A)
2781: CC 39 30       ldd      #0x3930
2784: 8E 00 04       ldx      #0x04
2787: 6C A2          inc      ,-y
2789: A1 A4          cmpa     ,y
278B: 24 06          bcc      0x2793
278D: E7 A4          stb      ,y
278F: 30 1F          leax     -0x01,x
2791: 26 F4          bne      0x2787
2793: 86 21          lda      #21
2795: 16 F7 02       lbra     0x1E9A

2798: 4E             Illegal Opcode, changing to data
2799: 41             Illegal Opcode, changing to data
279A: 52             Illegal Opcode, changing to data
279B: 47             asra     
279C: DE 13          ldu      0x13
279E: D6 12          ldb      0x12
27A0: 34 46          pshs     u,b,a
27A2: 86 FF          lda      #FF
27A4: 34 06          pshs     b,a
27A6: 33 E4          leau     ,s
27A8: 9E 8D          ldx      0x008D
27AA: 9F 13          stx      0x13
27AC: D6 8C          ldb      0x008C
27AE: D7 12          stb      0x12
27B0: 0F B2          clr      0x00B2
27B2: 31 8D D5 74    leay     0xD574,pc ; (0xFD2A)
27B6: 6F 43          clr      0x03,u
27B8: 17 D9 07       lbsr     0x00C2
27BB: 27 50          beq      0x280D
27BD: 81 2A          cmpa     #2A
27BF: 26 04          bne      0x27C5
27C1: 6D C4          tst      ,u
27C3: 2B 48          bmi      0x280D
27C5: 81 09          cmpa     #09
27C7: 26 04          bne      0x27CD
27C9: 6D 43          tst      0x03,u
27CB: 27 40          beq      0x280D
27CD: 81 20          cmpa     #20
27CF: 26 04          bne      0x27D5
27D1: 6D 43          tst      0x03,u
27D3: 27 38          beq      0x280D
27D5: 6D C4          tst      ,u
27D7: 2A 02          bpl      0x27DB
27D9: 6F C4          clr      ,u
27DB: 81 2C          cmpa     #2C
27DD: 26 04          bne      0x27E3
27DF: 6D 43          tst      0x03,u
27E1: 27 20          beq      0x2803
27E3: 81 28          cmpa     #28
27E5: 26 08          bne      0x27EF
27E7: 6D 43          tst      0x03,u
27E9: 26 0C          bne      0x27F7
27EB: 6A 43          dec      0x03,u
27ED: 20 C9          bra      0x27B8

27EF: 81 29          cmpa     #29
27F1: 26 04          bne      0x27F7
27F3: 6D 43          tst      0x03,u
27F5: 26 BF          bne      0x27B6
27F7: D6 B2          ldb      0x00B2
27F9: C1 10          cmpb     #10
27FB: 24 BB          bcc      0x27B8
27FD: 0C B2          inc      0x00B2
27FF: A7 A0          sta      ,y+
2801: 20 B5          bra      0x27B8

2803: E6 C4          ldb      ,u
2805: E1 42          cmpb     0x02,u
2807: 27 0C          beq      0x2815
2809: 6C C4          inc      ,u
280B: 20 A3          bra      0x27B0

280D: E6 C4          ldb      ,u
280F: E1 42          cmpb     0x02,u
2811: 27 02          beq      0x2815
2813: 0F B2          clr      0x00B2
2815: 35 56          puls     a,b,x,u
2817: DF 13          stu      0x13
2819: D7 12          stb      0x12
281B: 39             rts      

281C: 31 8D D3 DB    leay     0xD3DB,pc ; (0xFBFB)
2820: E6 22          ldb      0x02,y
2822: CB 03          addb     #03
2824: 9E 88          ldx      0x0088
2826: 3A             abx      
2827: 9C 0E          cpx      0x0E
2829: 24 33          bcc      0x285E
282B: 9E 88          ldx      0x0088
282D: 34 10          pshs     x
282F: A6 A0          lda      ,y+
2831: A7 80          sta      ,x+
2833: 5A             decb     
2834: 26 F9          bne      0x282F
2836: 9F 88          stx      0x0088
2838: 35 90          puls     x,pc ;(pul? pc=rts)

283A: 96 B0          lda      0x00B0
283C: 81 09          cmpa     #09
283E: 26 03          bne      0x2843
2840: 0D A1          tst      0x00A1
2842: 39             rts      

2843: 0D 9E          tst      0x009E
2845: 27 03          beq      0x284A
2847: 0D A2          tst      0x00A2
2849: 39             rts      

284A: 0D 9F          tst      0x009F
284C: 27 03          beq      0x2851
284E: 0D A3          tst      0x00A3
2850: 39             rts      

2851: 43             coma     
2852: 39             rts      

2853: C6 0C          ldb      #0C
2855: 8C C6 10       cmpx     #0xC610
2858: 8C C6 25       cmpx     #0xC625
285B: 16 FB 7B       lbra     0x23D9

285E: C6 24          ldb      #24
2860: 16 ED C7       lbra     0x162A

2863: 30 8D D4 9E    leax     0xD49E,pc ; (0xFD05)
2867: C6 20          ldb      #20
2869: 16 DB 6E       lbra     0x03DA

286C: 10 26 F5 AB    lbne     0x1E1B
2870: 8D F1          bsr      0x2863
2872: 17 D8 4A       lbsr     0x00BF
2875: 27 1A          beq      0x2891
2877: 9E 13          ldx      0x13
2879: 30 1F          leax     -0x01,x
287B: 31 8D D4 86    leay     0xD486,pc ; (0xFD05)
287F: 5C             incb     
2880: 17 D8 3F       lbsr     0x00C2
2883: 27 05          beq      0x288A
2885: 5C             incb     
2886: C1 20          cmpb     #20
2888: 26 F6          bne      0x2880
288A: A6 80          lda      ,x+
288C: A7 A0          sta      ,y+
288E: 5A             decb     
288F: 26 F9          bne      0x288A
2891: 20 3B          bra      0x28CE

2893: 10 26 F5 84    lbne     0x1E1B
2897: 0D 83          tst      0x0083
2899: 26 37          bne      0x28D2
289B: 0D 79          tst      0x79
289D: 26 33          bne      0x28D2
289F: 86 08          lda      #08
28A1: 97 B0          sta      0x00B0
28A3: 0D 77          tst      0x77
28A5: 27 2B          beq      0x28D2
28A7: 17 FC BC       lbsr     0x2566
28AA: 17 E4 66       lbsr     0x0D13
28AD: 16 F5 02       lbra     0x1DB2

28B0: 10 27 FA C2    lbeq     0x2376
28B4: 96 9E          lda      0x009E
28B6: 9A 9F          ora      0x009F
28B8: 10 26 FF 97    lbne     0x2853
28BC: 0A 9E          dec      0x009E
28BE: 9E BF          ldx      0x00BF
28C0: 0D D8          tst      0x00D8
28C2: 27 02          beq      0x28C6
28C4: 9E 88          ldx      0x0088
28C6: 86 09          lda      #09
28C8: 17 E9 6E       lbsr     0x1239
28CB: 17 FB 00       lbsr     0x23CE
28CE: 86 08          lda      #08
28D0: 97 B0          sta      0x00B0
28D2: 39             rts      

28D3: 0D 9E          tst      0x009E
28D5: 26 10          bne      0x28E7
28D7: 5D             tstb     
28D8: 27 05          beq      0x28DF
28DA: C6 18          ldb      #18
28DC: 17 FB 01       lbsr     0x23E0
28DF: 0D 9F          tst      0x009F
28E1: 27 11          beq      0x28F4
28E3: 9E 8A          ldx      0x008A
28E5: 9F BF          stx      0x00BF
28E7: 17 FC 4F       lbsr     0x2539
28EA: 17 FC 75       lbsr     0x2562
28ED: 0F 9E          clr      0x009E
28EF: 0F 9F          clr      0x009F
28F1: 16 F4 BE       lbra     0x1DB2

28F4: C6 22          ldb      #22
28F6: 16 FA E0       lbra     0x23D9

28F9: 10 26 F5 1E    lbne     0x1E1B
28FD: 17 D8 4C       lbsr     0x014C
2900: 27 CC          beq      0x28CE
2902: 81 00          cmpa     #00
2904: 26 26          bne      0x292C
2906: D6 15          ldb      0x15
2908: 31 8C 26       leay     0x26,pc ; (0x2931)
290B: 86 02          lda      #02
290D: 17 D8 C4       lbsr     0x01D4
2910: 10 25 F7 6A    lbcs     0x207E
2914: A6 A0          lda      ,y+
2916: E6 A4          ldb      ,y
2918: 30 8D D2 85    leax     0xD285,pc ; (0xFBA1)
291C: E7 86          stb      a,x
291E: 17 D7 A1       lbsr     0x00C2
2921: 27 AB          beq      0x28CE
2923: 81 2C          cmpa     #2C
2925: 27 D6          beq      0x28FD
2927: 17 D7 D9       lbsr     0x0103
292A: 20 A2          bra      0x28CE

292C: 17 D7 E0       lbsr     0x010F
292F: 20 9D          bra      0x28CE

2931: 02             Illegal Opcode, changing to data
2932: 4D             tsta     
2933: 43             coma     
2934: 00 FF          neg      0x00FF
2936: 04 4E          lsr      0x4E
2938: 4F             clra     
2939: 4D             tsta     
293A: 43             coma     
293B: 00 00          neg      0x00
293D: 02             Illegal Opcode, changing to data
293E: 4D             tsta     
293F: 44             lsra     
2940: 01             Illegal Opcode, changing to data
2941: FF 04 4E       stu      0x044E
2944: 4F             clra     
2945: 4D             tsta     
2946: 44             lsra     
2947: 01             Illegal Opcode, changing to data
2948: 00 03          neg      0x03
294A: 4D             tsta     
294B: 45             Illegal Opcode, changing to data
294C: 58             aslb     
294D: 02             Illegal Opcode, changing to data
294E: FF 05 4E       stu      0x054E
2951: 4F             clra     
2952: 4D             tsta     
2953: 45             Illegal Opcode, changing to data
2954: 58             aslb     
2955: 02             Illegal Opcode, changing to data
2956: 00 01          neg      0x01
2958: 4C             inca     
2959: 03 00          com      0x00
295B: 03 4E          com      0x4E
295D: 4F             clra     
295E: 4C             inca     
295F: 03 FF          com      0x00FF
2961: 00 10          neg      0x10
2963: 26 F4          bne      0x2959
2965: B5 96 D8       bita     0x96D8
2968: 9A 9E          ora      0x009E
296A: 9A 9F          ora      0x009F
296C: 10 26 FE E3    lbne     0x2853
2970: 17 E4 FD       lbsr     0x0E70
2973: 25 07          bcs      0x297C
2975: 17 E0 0D       lbsr     0x0985
2978: 0A D8          dec      0x00D8
297A: 20 B3          bra      0x292F

297C: C6 0F          ldb      #0F
297E: 16 FA 58       lbra     0x23D9

2981: 10 26 F4 96    lbne     0x1E1B
2985: 17 FA 43       lbsr     0x23CB
2988: 10 93 1B       cmpd     0x1B
298B: 27 07          beq      0x2994
298D: 0D 9D          tst      0x009D
298F: 26 03          bne      0x2994
2991: 0C A0          inc      0x00A0
2993: 8C 0C 9D       cmpx     #0x0C9D
2996: 20 97          bra      0x292F

2998: 27 05          beq      0x299F
299A: C6 18          ldb      #18
299C: 17 FA 41       lbsr     0x23E0
299F: 0D 9D          tst      0x009D
29A1: 26 07          bne      0x29AA
29A3: 0D A0          tst      0x00A0
29A5: 27 07          beq      0x29AE
29A7: 0A A0          dec      0x00A0
29A9: 8C 0A 9D       cmpx     #0x0A9D
29AC: 20 81          bra      0x292F

29AE: C6 21          ldb      #21
29B0: 16 FA 26       lbra     0x23D9

29B3: 86 09          lda      #09
29B5: 97 B0          sta      0x00B0
29B7: 16 F8 7C       lbra     0x2236

29BA: 30 8D 05 3C    leax     0x053C,pc ; (0x2EFA)
29BE: BF 01 07       stx      0x0107
29C1: 86 7E          lda      #7E
29C3: B7 01 06       sta      0x0106
29C6: 30 8D E5 3A    leax     0xE53A,pc ; (0x10F04)
29CA: BF 00 72       stx      0x72
29CD: 9E B9          ldx      0x00B9
29CF: 30 02          leax     0x02,x
29D1: 9F DD          stx      0x00DD
29D3: 30 8D D1 47    leax     0xD147,pc ; (0xFB1E)
29D7: C6 57          ldb      #57
29D9: 17 D6 DD       lbsr     0x00B9
29DC: CC 10 39       ldd      #0x1039
29DF: D7 32          stb      0x32
29E1: 97 30          sta      0x30
29E3: 97 08          sta      0x08
29E5: 97 00          sta      0x00
29E7: 86 02          lda      #02
29E9: 97 DC          sta      0x00DC
29EB: 30 8D D6 11    leax     0xD611,pc ; (0x10000)
29EF: 30 89 FF 79    leax     0xFF79,x
29F3: 9F 3F          stx      0x3F
29F5: 0F 01          clr      0x01
29F7: 0F 04          clr      0x04
29F9: 17 D8 68       lbsr     0x0264
29FC: 86 23          lda      #23
29FE: 8D 56          bsr      0x2A56
2A00: 32 8D D5 FC    leas     0xD5FC,pc ; (0x10000)
2A04: 0F 0D          clr      0x0D
2A06: 8D 5A          bsr      0x2A62
2A08: 9E 22          ldx      0x22
2A0A: 0D 2A          tst      0x2A
2A0C: 27 1C          beq      0x2A2A
2A0E: C1 09          cmpb     #09
2A10: 25 18          bcs      0x2A2A
2A12: 27 03          beq      0x2A17
2A14: CE 00 3B       ldu      #0x3B
2A17: 0D 12          tst      0x12
2A19: 27 0F          beq      0x2A2A
2A1B: 17 02 C4       lbsr     0x2CE2
2A1E: E7 84          stb      ,x
2A20: E1 84          cmpb     ,x
2A22: 26 28          bne      0x2A4C
2A24: 0D 2B          tst      0x2B
2A26: 27 1A          beq      0x2A42
2A28: 2B 1C          bmi      0x2A46
2A2A: 0F 2A          clr      0x2A
2A2C: 31 8D FF 8A    leay     0xFF8A,pc ; (0x129BA)
2A30: 1F 20          tfr      y,d
2A32: 0D 12          tst      0x12
2A34: AD CB          jsr      d,u
2A36: 20 BD          bra      0x29F5

2A38: 5A             decb     
2A39: 2D 42          blt      0x2A7D
2A3B: 55             Illegal Opcode, changing to data
2A3C: 47             asra     
2A3D: 2F 31          ble      0x2A70
2A3F: 2E 30          bgt      0x2A71
2A41: B0 0D 26       suba     0x0D26
2A44: 2A E4          bpl      0x2A2A
2A46: ED 84          std      ,x
2A48: A3 84          subd     ,x
2A4A: 27 DE          beq      0x2A2A
2A4C: C6 17          ldb      #17
2A4E: 16 00 90       lbra     0x2AE1

2A51: 17 D8 10       lbsr     0x0264
2A54: 86 20          lda      #20
2A56: 0F 16          clr      0x16
2A58: 16 D8 0B       lbra     0x0266

2A5B: 96 12          lda      0x12
2A5D: 97 16          sta      0x16
2A5F: 17 D8 6C       lbsr     0x02CE
2A62: 30 8D D1 95    leax     0xD195,pc ; (0xFBFB)
2A66: 9F 13          stx      0x13
2A68: 0F 12          clr      0x12
2A6A: 17 D8 76       lbsr     0x02E3
2A6D: 81 15          cmpa     #15
2A6F: 27 EA          beq      0x2A5B
2A71: 81 08          cmpa     #08
2A73: 27 20          beq      0x2A95
2A75: 81 0D          cmpa     #0D
2A77: 27 06          beq      0x2A7F
2A79: 81 0A          cmpa     #0A
2A7B: 27 02          beq      0x2A7F
2A7D: 8D D9          bsr      0x2A58
2A7F: 31 8C 1C       leay     0x1C,pc ; (0x2A9E)
2A82: C6 0B          ldb      #0B
2A84: 17 D7 68       lbsr     0x01EF
2A87: 17 E3 88       lbsr     0x0E12
2A8A: 27 08          beq      0x2A94
2A8C: 0C 12          inc      0x12
2A8E: 2B 4F          bmi      0x2ADF
2A90: A7 80          sta      ,x+
2A92: 20 D6          bra      0x2A6A

2A94: 39             rts      

2A95: D6 12          ldb      0x12
2A97: 17 D8 07       lbsr     0x02A1
2A9A: D7 12          stb      0x12
2A9C: 20 CC          bra      0x2A6A

2A9E: 01             Illegal Opcode, changing to data
2A9F: 7B             Illegal Opcode, changing to data
2AA0: 2F 01          ble      0x2AA3
2AA2: 97 5E          sta      0x5E
2AA4: 02             Illegal Opcode, changing to data
2AA5: 56             rorb     
2AA6: 3B             rti      

2AA7: 02             Illegal Opcode, changing to data
2AA8: 63 3D          com      -0x03,y
2AAA: 02             Illegal Opcode, changing to data
2AAB: 79 3A 02       rol      0x3A02
2AAE: 83 22 02       subd     #0x2202
2AB1: 3D             mul      
2AB2: 09 02          rol      0x02
2AB4: 97 2C          sta      0x2C
2AB6: 00 3B          neg      0x3B
2AB8: 03 01          com      0x01
2ABA: 9E 0A          ldx      0x0A
2ABC: 01             Illegal Opcode, changing to data
2ABD: 05             Illegal Opcode, changing to data
2ABE: 0D 17          tst      0x17
2AC0: D5 FD          bitb     0x00FD
2AC2: 10 27 FF 2F    lbeq     0x29F5
2AC6: 9E 20          ldx      0x20
2AC8: 31 8C 25       leay     0x25,pc ; (0x2AF0)
2ACB: C6 15          ldb      #15
2ACD: 17 D7 1F       lbsr     0x01EF
2AD0: 26 0D          bne      0x2ADF
2AD2: 17 D6 2A       lbsr     0x00FF
2AD5: 10 27 FF 51    lbeq     0x2A2A
2AD9: C1 0A          cmpb     #0A
2ADB: 10 24 FF 4B    lbcc     0x2A2A
2ADF: C6 0D          ldb      #0D
2AE1: 0F 01          clr      0x01
2AE3: 0F 04          clr      0x04
2AE5: 17 D7 78       lbsr     0x0260
2AE8: 17 D7 29       lbsr     0x0214
2AEB: 0F 2A          clr      0x2A
2AED: 16 FF 0C       lbra     0x29FC

2AF0: 03 71          com      0x71
2AF2: 4D             tsta     
2AF3: 03 64          com      0x64
2AF5: 42             Illegal Opcode, changing to data
2AF6: 03 69          com      0x69
2AF8: 57             asrb     
2AF9: 03 82          com      0x0082
2AFB: 48             asla     
2AFC: 03 7B          com      0x7B
2AFE: 4E             Illegal Opcode, changing to data
2AFF: 03 7C          com      0x7C
2B01: 53             comb     
2B02: 02             Illegal Opcode, changing to data
2B03: D1 44          cmpb     0x44
2B05: 03 EB          com      0x00EB
2B07: 52             Illegal Opcode, changing to data
2B08: 01             Illegal Opcode, changing to data
2B09: 75             Illegal Opcode, changing to data
2B0A: 45             Illegal Opcode, changing to data
2B0B: 03 5B          com      0x5B
2B0D: 41             Illegal Opcode, changing to data
2B0E: 02             Illegal Opcode, changing to data
2B0F: F4 58 03       andb     0x5803
2B12: 34 59          pshs     u,x,dp,cc
2B14: 02             Illegal Opcode, changing to data
2B15: A8 43          eora     0x03,u
2B17: 02             Illegal Opcode, changing to data
2B18: 8C 47 03       cmpx     #0x4703
2B1B: 87             Illegal Opcode, changing to data
2B1C: 49             rola     
2B1D: 03 8D          com      0x008D
2B1F: 4F             clra     
2B20: 03 A9          com      0x00A9
2B22: 54             lsrb     
2B23: 04 44          lsr      0x44
2B25: 4C             inca     
2B26: 04 7C          lsr      0x7C
2B28: 50             negb     
2B29: 04 6E          lsr      0x6E
2B2B: 56             rorb     
2B2C: 04 BE          lsr      0x00BE
2B2E: 55             Illegal Opcode, changing to data
2B2F: 17 D7 32       lbsr     0x0264
2B32: 16 E9 F7       lbra     0x152C

2B35: 27 24          beq      0x2B5B
2B37: 8D 2D          bsr      0x2B66
2B39: 0D 2B          tst      0x2B
2B3B: 26 02          bne      0x2B3F
2B3D: 9F 20          stx      0x20
2B3F: 9F 22          stx      0x22
2B41: 17 D7 1C       lbsr     0x0260
2B44: 17 00 65       lbsr     0x2BAC
2B47: 86 01          lda      #01
2B49: 97 2A          sta      0x2A
2B4B: 17 D7 12       lbsr     0x0260
2B4E: 16 FE AF       lbra     0x2A00

2B51: 26 8C          bne      0x2ADF
2B53: 9E 20          ldx      0x20
2B55: 30 1F          leax     -0x01,x
2B57: 8C 9E 28       cmpx     #0x9E28
2B5A: 8C 9E 20       cmpx     #0x9E20
2B5D: 17 FE F1       lbsr     0x2A51
2B60: 8D 38          bsr      0x2B9A
2B62: 0F 2B          clr      0x2B
2B64: 20 D7          bra      0x2B3D

2B66: 0F 2B          clr      0x2B
2B68: 17 D5 E3       lbsr     0x014E
2B6B: 81 05          cmpa     #05
2B6D: 25 22          bcs      0x2B91
2B6F: 30 8D CF C4    leax     0xCFC4,pc ; (0xFB37)
2B73: C1 05          cmpb     #05
2B75: 23 15          bls      0x2B8C
2B77: 0C 2B          inc      0x2B
2B79: C0 08          subb     #08
2B7B: 27 0E          beq      0x2B8B
2B7D: 30 01          leax     0x01,x
2B7F: 5A             decb     
2B80: 27 09          beq      0x2B8B
2B82: 30 1D          leax     -0x03,x
2B84: 5A             decb     
2B85: 26 02          bne      0x2B89
2B87: 0C 2B          inc      0x2B
2B89: 30 85          leax     b,x
2B8B: 39             rts      

2B8C: 0A 2B          dec      0x2B
2B8E: 58             aslb     
2B8F: 20 F8          bra      0x2B89

2B91: 17 D5 7B       lbsr     0x010F
2B94: 17 01 4B       lbsr     0x2CE2
2B97: 1F 01          tfr      d,x
2B99: 39             rts      

2B9A: 1F 10          tfr      x,d
2B9C: 0D 2C          tst      0x2C
2B9E: 27 02          beq      0x2BA2
2BA0: 0C 31          inc      0x31
2BA2: 8D 4B          bsr      0x2BEF
2BA4: 16 07 94       lbra     0x333B

2BA7: 8D F1          bsr      0x2B9A
2BA9: 17 D6 B4       lbsr     0x0260
2BAC: 0D 2B          tst      0x2B
2BAE: 27 20          beq      0x2BD0
2BB0: 2B 31          bmi      0x2BE3
2BB2: 8D 2B          bsr      0x2BDF
2BB4: 96 2B          lda      0x2B
2BB6: 4A             deca     
2BB7: 27 23          beq      0x2BDC
2BB9: E6 1F          ldb      -0x01,x
2BBB: 17 07 7A       lbsr     0x3338
2BBE: 34 10          pshs     x
2BC0: 30 8C 05       leax     0x05,pc ; (0x2BC8)
2BC3: 17 D6 3C       lbsr     0x0202
2BC6: 35 90          puls     x,pc ;(pul? pc=rts)

2BC8: C5 C6          bitb     #C6
2BCA: C8 C9          eorb     #C9
2BCC: CE DA D6       ldu      #0xDAD6
2BCF: C3 0D 26       addd     #0x0D26
2BD2: 26 09          bne      0x2BDD
2BD4: 1F 12          tfr      x,y
2BD6: 17 04 7B       lbsr     0x3054
2BD9: 10 9F 28       sty      0x28
2BDC: 39             rts      

2BDD: 2B 04          bmi      0x2BE3
2BDF: 4F             clra     
2BE0: E6 80          ldb      ,x+
2BE2: 8C EC 81       cmpx     #0xEC81
2BE5: 0D 2B          tst      0x2B
2BE7: 26 02          bne      0x2BEB
2BE9: 9F 28          stx      0x28
2BEB: 0D 2F          tst      0x2F
2BED: 2B 03          bmi      0x2BF2
2BEF: 16 02 8F       lbra     0x2E81

2BF2: 1F 98          tfr      b,a
2BF4: 16 D6 6F       lbra     0x0266

2BF7: 27 03          beq      0x2BFC
2BF9: 17 FF 6A       lbsr     0x2B66
2BFC: 1F 12          tfr      x,y
2BFE: AE 84          ldx      ,x
2C00: 0D 2B          tst      0x2B
2C02: 26 09          bne      0x2C0D
2C04: 0D 26          tst      0x26
2C06: 26 05          bne      0x2C0D
2C08: 17 04 3E       lbsr     0x3049
2C0B: 1F 31          tfr      u,x
2C0D: 16 FF 4D       lbra     0x2B5D

2C10: 10 26 FE CB    lbne     0x2ADF
2C14: 0A 31          dec      0x31
2C16: 8D 94          bsr      0x2BAC
2C18: 0F 31          clr      0x31
2C1A: 16 FF 2A       lbra     0x2B47

2C1D: 4F             clra     
2C1E: E6 84          ldb      ,x
2C20: 30 8D FF 23    leax     0xFF23,pc ; (0x12B47)
2C24: 0D 12          tst      0x12
2C26: 27 05          beq      0x2C2D
2C28: 30 04          leax     0x04,x
2C2A: 17 00 B5       lbsr     0x2CE2
2C2D: 0A 31          dec      0x31
2C2F: 8D BE          bsr      0x2BEF
2C31: 6E 84          jmp      ,x

2C33: 26 DB          bne      0x2C10
2C35: E6 84          ldb      ,x
2C37: 17 FF 81       lbsr     0x2BBB
2C3A: 16 FF 0A       lbra     0x2B47

2C3D: 26 D1          bne      0x2C10
2C3F: A6 84          lda      ,x
2C41: 17 D6 22       lbsr     0x0266
2C44: 20 F4          bra      0x2C3A

2C46: 17 00 99       lbsr     0x2CE2
2C49: DD 41          std      0x41
2C4B: 17 FE 03       lbsr     0x2A51
2C4E: 16 03 9C       lbra     0x2FED

2C51: 0F 2B          clr      0x2B
2C53: 86 01          lda      #01
2C55: 97 2D          sta      0x2D
2C57: 0D 12          tst      0x12
2C59: 27 24          beq      0x2C7F
2C5B: 17 00 84       lbsr     0x2CE2
2C5E: DD 41          std      0x41
2C60: 20 23          bra      0x2C85

2C62: 27 0B          beq      0x2C6F
2C64: 8D 7A          bsr      0x2CE0
2C66: 10 93 1B       cmpd     0x1B
2C69: 10 27 03 97    lbeq     0x3004
2C6D: 20 03          bra      0x2C72

2C6F: CC 00 01       ldd      #0x01
2C72: 34 06          pshs     b,a
2C74: 9E 41          ldx      0x41
2C76: 17 03 13       lbsr     0x2F8C
2C79: 35 06          puls     a,b
2C7B: 26 02          bne      0x2C7F
2C7D: ED 23          std      0x03,y
2C7F: 0D 27          tst      0x27
2C81: 10 27 03 7F    lbeq     0x3004
2C85: 17 FD C9       lbsr     0x2A51
2C88: 16 03 7E       lbra     0x3009

2C8B: CC 00 08       ldd      #0x08
2C8E: 17 03 2F       lbsr     0x2FC0
2C91: 34 06          pshs     b,a
2C93: EC A4          ldd      ,y
2C95: 27 0D          beq      0x2CA4
2C97: 17 FD B7       lbsr     0x2A51
2C9A: A6 E4          lda      ,s
2C9C: 17 02 C0       lbsr     0x2F5F
2C9F: EC A4          ldd      ,y
2CA1: 17 01 DD       lbsr     0x2E81
2CA4: 31 25          leay     0x05,y
2CA6: 6C E4          inc      ,s
2CA8: 6A 61          dec      0x01,s
2CAA: 26 E7          bne      0x2C93
2CAC: 35 86          puls     a,b,pc ;(pul? pc=rts)

2CAE: 27 04          beq      0x2CB4
2CB0: 8D 30          bsr      0x2CE2
2CB2: 1F 01          tfr      d,x
2CB4: E6 84          ldb      ,x
2CB6: A7 84          sta      ,x
2CB8: A1 84          cmpa     ,x
2CBA: 26 0D          bne      0x2CC9
2CBC: 4C             inca     
2CBD: A7 84          sta      ,x
2CBF: A1 84          cmpa     ,x
2CC1: 26 06          bne      0x2CC9
2CC3: E7 84          stb      ,x
2CC5: C1 3F          cmpb     #3F
2CC7: 26 04          bne      0x2CCD
2CC9: C6 26          ldb      #26
2CCB: 20 45          bra      0x2D12

2CCD: 17 02 BC       lbsr     0x2F8C
2CD0: 27 F7          beq      0x2CC9
2CD2: 34 10          pshs     x
2CD4: 9E 1B          ldx      0x1B
2CD6: 17 02 B3       lbsr     0x2F8C
2CD9: 26 EE          bne      0x2CC9
2CDB: 35 10          puls     x
2CDD: 16 02 F8       lbra     0x2FD8

2CE0: 0C 07          inc      0x07
2CE2: 17 E2 5A       lbsr     0x0F3F
2CE5: 34 01          pshs     cc
2CE7: 0F 07          clr      0x07
2CE9: 35 01          puls     cc
2CEB: 25 25          bcs      0x2D12
2CED: 39             rts      

2CEE: 27 13          beq      0x2D03
2CF0: 8D EE          bsr      0x2CE0
2CF2: 10 83 00 07    cmpd     #0x07
2CF6: 22 18          bhi      0x2D10
2CF8: 86 05          lda      #05
2CFA: 3D             mul      
2CFB: 17 02 C2       lbsr     0x2FC0
2CFE: DE 1B          ldu      0x1B
2D00: EF A5          stu      b,y
2D02: 39             rts      

2D03: 8E 00 08       ldx      #0x08
2D06: 1F 10          tfr      x,d
2D08: 5A             decb     
2D09: 8D ED          bsr      0x2CF8
2D0B: 30 1F          leax     -0x01,x
2D0D: 26 F7          bne      0x2D06
2D0F: 39             rts      

2D10: C6 26          ldb      #26
2D12: 16 FD CC       lbra     0x2AE1

2D15: 8D 07          bsr      0x2D1E
2D17: D6 2F          ldb      0x2F
2D19: CA 80          orb      #80
2D1B: D7 2F          stb      0x2F
2D1D: 39             rts      

2D1E: CC 01 01       ldd      #0x0101
2D21: 20 03          bra      0x2D26

2D23: CC 02 80       ldd      #0x0280
2D26: 30 86          leax     a,x
2D28: 9F 28          stx      0x28
2D2A: 86 5F          lda      #5F
2D2C: D7 26          stb      0x26
2D2E: D6 2F          ldb      0x2F
2D30: C4 7F          andb     #7F
2D32: D7 2F          stb      0x2F
2D34: 39             rts      

2D35: C6 5F          ldb      #5F
2D37: D7 2F          stb      0x2F
2D39: 0F 2C          clr      0x2C
2D3B: 39             rts      

2D3C: 8D F7          bsr      0x2D35
2D3E: 0A 2C          dec      0x2C
2D40: 39             rts      

2D41: 33 8D CD C3    leau     0xCDC3,pc ; (0xFB08)
2D45: 20 04          bra      0x2D4B

2D47: 33 8D CD E5    leau     0xCDE5,pc ; (0xFB30)
2D4B: 8D 93          bsr      0x2CE0
2D4D: 4D             tsta     
2D4E: 26 0C          bne      0x2D5C
2D50: C1 10          cmpb     #10
2D52: 27 0C          beq      0x2D60
2D54: C1 0A          cmpb     #0A
2D56: 27 08          beq      0x2D60
2D58: C1 08          cmpb     #08
2D5A: 27 04          beq      0x2D60
2D5C: C6 16          ldb      #16
2D5E: 20 B2          bra      0x2D12

2D60: E7 C4          stb      ,u
2D62: 39             rts      

2D63: 17 D3 5C       lbsr     0x00C2
2D66: 81 48          cmpa     #48
2D68: 27 25          beq      0x2D8F
2D6A: 17 D3 96       lbsr     0x0103
2D6D: 0F 2B          clr      0x2B
2D6F: 17 FF 70       lbsr     0x2CE2
2D72: 1F 01          tfr      d,x
2D74: 17 D3 88       lbsr     0x00FF
2D77: 17 FF 68       lbsr     0x2CE2
2D7A: 34 06          pshs     b,a
2D7C: 17 FC D2       lbsr     0x2A51
2D7F: 9F 20          stx      0x20
2D81: 17 FE 23       lbsr     0x2BA7
2D84: 17 DA 18       lbsr     0x079F
2D87: 9E 28          ldx      0x28
2D89: AC E4          cpx      ,s
2D8B: 23 EF          bls      0x2D7C
2D8D: 35 90          puls     x,pc ;(pul? pc=rts)

2D8F: 17 D3 2D       lbsr     0x00BF
2D92: 17 D4 CF       lbsr     0x0264
2D95: 17 DA A8       lbsr     0x0840
2D98: 0A 04          dec      0x04
2D9A: 8D CE          bsr      0x2D6A
2D9C: 17 D4 C5       lbsr     0x0264
2D9F: 17 DA 9B       lbsr     0x083D
2DA2: 0F 04          clr      0x04
2DA4: 39             rts      

2DA5: 17 FC A9       lbsr     0x2A51
2DA8: 30 8C 47       leax     0x47,pc ; (0x2DF2)
2DAB: 31 8D D5 7C    leay     0xD57C,pc ; (0x1032B)
2DAF: 4F             clra     
2DB0: D6 37          ldb      0x37
2DB2: 8D 2D          bsr      0x2DE1
2DB4: D6 38          ldb      0x38
2DB6: 8D 29          bsr      0x2DE1
2DB8: D6 36          ldb      0x36
2DBA: 8D 25          bsr      0x2DE1
2DBC: D6 35          ldb      0x35
2DBE: 8D 21          bsr      0x2DE1
2DC0: 17 FD F8       lbsr     0x2BBB
2DC3: 17 FC 8B       lbsr     0x2A51
2DC6: 33 8D CD 6F    leau     0xCD6F,pc ; (0xFB39)
2DCA: C6 04          ldb      #04
2DCC: 34 04          pshs     b
2DCE: 31 8D D5 5D    leay     0xD55D,pc ; (0x1032F)
2DD2: EC C1          ldd      ,u++
2DD4: 8D 0B          bsr      0x2DE1
2DD6: 6A E4          dec      ,s
2DD8: 26 F8          bne      0x2DD2
2DDA: 35 04          puls     b
2DDC: 17 FC 72       lbsr     0x2A51
2DDF: EC C4          ldd      ,u
2DE1: 34 46          pshs     u,b,a
2DE3: 17 D4 35       lbsr     0x021B
2DE6: 17 05 4F       lbsr     0x3338
2DE9: EE E4          ldu      ,s
2DEB: AD A4          jsr      ,y
2DED: 17 D4 6D       lbsr     0x025D
2DF0: 35 C6          puls     a,b,u,pc ;(pul? pc=rts)

2DF2: C1 C2          cmpb     #C2
2DF4: 44             lsra     
2DF5: D0 43          subb     0x43
2DF7: C3 D8 D9       addd     #0xD8D9
2DFA: D5 D3          bitb     0x00D3
2DFC: 50             negb     
2DFD: C3 86 4C       addd     #0x864C
2E00: 17 DF E0       lbsr     0x0DE3
2E03: 17 00 27       lbsr     0x2E2D
2E06: 34 14          pshs     x,b
2E08: DE 1B          ldu      0x1B
2E0A: 10 9E DD       ldy      0x00DD
2E0D: 8D 5E          bsr      0x2E6D
2E0F: 27 0A          beq      0x2E1B
2E11: 1F 03          tfr      d,u
2E13: 8D 58          bsr      0x2E6D
2E15: 27 04          beq      0x2E1B
2E17: DD DD          std      0x00DD
2E19: 1F 02          tfr      d,y
2E1B: 35 14          puls     b,x
2E1D: 16 DA 55       lbra     0x0875

2E20: C6 09          ldb      #09
2E22: 8C C6 0F       cmpx     #0xC60F
2E25: 16 FC B9       lbra     0x2AE1

2E28: 8D 03          bsr      0x2E2D
2E2A: 16 DA 3E       lbra     0x086B

2E2D: 17 FC 21       lbsr     0x2A51
2E30: 17 D2 EC       lbsr     0x011F
2E33: 25 EB          bcs      0x2E20
2E35: 39             rts      

2E36: 86 50          lda      #50
2E38: 17 DF A8       lbsr     0x0DE3
2E3B: 17 FC 13       lbsr     0x2A51
2E3E: 17 D2 DB       lbsr     0x011C
2E41: 25 DD          bcs      0x2E20
2E43: 34 14          pshs     x,b
2E45: 17 D2 B7       lbsr     0x00FF
2E48: 8D 12          bsr      0x2E5C
2E4A: 34 70          pshs     u,y,x
2E4C: 11 A3 62       cmpu     0x02,s
2E4F: 22 D2          bhi      0x2E23
2E51: E6 66          ldb      0x06,s
2E53: AE 67          ldx      0x07,s
2E55: EE 69          ldu      0x09,s
2E57: EF 66          stu      0x06,s
2E59: 16 DA 87       lbra     0x08E3

2E5C: 8E 00 03       ldx      #0x03
2E5F: 17 FE 80       lbsr     0x2CE2
2E62: 34 06          pshs     b,a
2E64: 17 D2 98       lbsr     0x00FF
2E67: 30 1F          leax     -0x01,x
2E69: 26 F4          bne      0x2E5F
2E6B: 35 F0          puls     x,y,u,pc ;(pul? pc=rts)

2E6D: 17 D2 8F       lbsr     0x00FF
2E70: 27 05          beq      0x2E77
2E72: 17 FE 6D       lbsr     0x2CE2
2E75: 1C FB          andcc    #FB
2E77: 39             rts      

2E78: 8D E2          bsr      0x2E5C
2E7A: 1E 12          exg      x,y
2E7C: 1E 13          exg      x,u
2E7E: 16 D5 29       lbra     0x03AA

2E81: 34 76          pshs     u,y,x,b,a
2E83: 0D 00          tst      0x00
2E85: 2B 29          bmi      0x2EB0
2E87: 0D 31          tst      0x31
2E89: 34 01          pshs     cc
2E8B: 0F 31          clr      0x31
2E8D: 35 01          puls     cc
2E8F: 2B 06          bmi      0x2E97
2E91: 26 28          bne      0x2EBB
2E93: 0D 2F          tst      0x2F
2E95: 27 24          beq      0x2EBB
2E97: 30 8C 16       leax     0x16,pc ; (0x2EB0)
2E9A: 34 10          pshs     x
2E9C: 1F 03          tfr      d,u
2E9E: 93 1B          subd     0x1B
2EA0: 27 10          beq      0x2EB2
2EA2: 96 30          lda      0x30
2EA4: 81 0A          cmpa     #0A
2EA6: 22 0D          bhi      0x2EB5
2EA8: 25 0E          bcs      0x2EB8
2EAA: 17 D4 C4       lbsr     0x0371
2EAD: 16 04 85       lbra     0x3335

2EB0: 35 F6          puls     a,b,x,y,u,pc ;(pul? pc=rts)

2EB2: 16 D3 A2       lbra     0x0257

2EB5: 16 D4 78       lbra     0x0330

2EB8: 16 D4 4A       lbra     0x0305

2EBB: 8E 00 33       ldx      #0x33
2EBE: 34 16          pshs     x,b,a
2EC0: DE 0E          ldu      0x0E
2EC2: A6 C0          lda      ,u+
2EC4: 84 07          anda     #07
2EC6: 27 15          beq      0x2EDD
2EC8: 1F 32          tfr      u,y
2ECA: 33 C6          leau     a,u
2ECC: EC E4          ldd      ,s
2ECE: A3 C1          subd     ,u++
2ED0: 2B F0          bmi      0x2EC2
2ED2: 10 A3 62       cmpd     0x02,s
2ED5: 24 EB          bcc      0x2EC2
2ED7: ED 62          std      0x02,s
2ED9: 1F 21          tfr      y,x
2EDB: 20 E5          bra      0x2EC2

2EDD: 35 60          puls     y,u
2EDF: 11 83 00 33    cmpu     #0x33
2EE3: 24 0D          bcc      0x2EF2
2EE5: 17 D3 EF       lbsr     0x02D7
2EE8: 11 93 1B       cmpu     0x1B
2EEB: 27 C3          beq      0x2EB0
2EED: 17 04 33       lbsr     0x3323
2EF0: 1F 32          tfr      u,y
2EF2: 1F 20          tfr      y,d
2EF4: 0A 31          dec      0x31
2EF6: 8D 89          bsr      0x2E81
2EF8: 20 B6          bra      0x2EB0

2EFA: 30 8D CC 34    leax     0xCC34,pc ; (0xFB32)
2EFE: B6 01 8E       lda      0x018E
2F01: A7 84          sta      ,x
2F03: FE 01 8F       ldu      0x018F
2F06: EF 01          stu      0x01,x
2F08: 12             nop      
2F09: 1F 43          tfr      s,u
2F0B: 32 8D D0 F1    leas     0xD0F1,pc ; (0x10000)
2F0F: 17 D1 86       lbsr     0x0098
2F12: EC 41          ldd      0x01,u
2F14: DD 37          std      0x37
2F16: AE 44          ldx      0x04,u
2F18: 9F 39          stx      0x39
2F1A: 10 9F 3B       sty      0x3B
2F1D: AE 48          ldx      0x08,u
2F1F: 9F 3D          stx      0x3D
2F21: A6 C4          lda      ,u
2F23: 97 27          sta      0x27
2F25: E6 43          ldb      0x03,u
2F27: DD 35          std      0x35
2F29: AE 4A          ldx      0x0A,u
2F2B: 30 1F          leax     -0x01,x
2F2D: 9F 41          stx      0x41
2F2F: 33 4C          leau     0x0C,u
2F31: DF 3F          stu      0x3F
2F33: 17 DA 06       lbsr     0x093C
2F36: 1C AF          andcc    #AF
2F38: 8D 4F          bsr      0x2F89
2F3A: 27 35          beq      0x2F71
2F3C: 8D 69          bsr      0x2FA7
2F3E: 8D 5B          bsr      0x2F9B
2F40: 9E 41          ldx      0x41
2F42: 8D 48          bsr      0x2F8C
2F44: 26 0C          bne      0x2F52
2F46: EE 23          ldu      0x03,y
2F48: 33 5F          leau     -0x01,u
2F4A: EF 23          stu      0x03,y
2F4C: 10 26 00 B9    lbne     0x3009
2F50: 6C 24          inc      0x04,y
2F52: 0F 01          clr      0x01
2F54: 0F 04          clr      0x04
2F56: 8D 07          bsr      0x2F5F
2F58: DC 41          ldd      0x41
2F5A: 17 FF 24       lbsr     0x2E81
2F5D: 20 27          bra      0x2F86

2F5F: 8B 30          adda     #30
2F61: 17 D3 02       lbsr     0x0266
2F64: 30 8C 03       leax     0x03,pc ; (0x2F6A)
2F67: 16 D2 B1       lbra     0x021B

2F6A: 20 42          bra      0x2FAE

2F6C: 52             Illegal Opcode, changing to data
2F6D: 4B             Illegal Opcode, changing to data
2F6E: 20 40          bra      0x2FB0

2F70: A0 8D 28 0D    suba     0x280D,pc ; (0x5781)
2F74: 2D 27          blt      0x2F9D
2F76: 76 0F 2D       ror      0x0F2D
2F79: 9E 28          ldx      0x28
2F7B: 34 10          pshs     x
2F7D: 9E 41          ldx      0x41
2F7F: 17 FC 25       lbsr     0x2BA7
2F82: 35 10          puls     x
2F84: 9F 28          stx      0x28
2F86: 16 FA 6C       lbra     0x29F5

2F89: 8D 2C          bsr      0x2FB7
2F8B: 8C 8D 30       cmpx     #0x8D30
2F8E: 4F             clra     
2F8F: AC A4          cpx      ,y
2F91: 27 07          beq      0x2F9A
2F93: 31 25          leay     0x05,y
2F95: 4C             inca     
2F96: 5A             decb     
2F97: 26 F6          bne      0x2F8F
2F99: 5C             incb     
2F9A: 39             rts      

2F9B: 8D 1A          bsr      0x2FB7
2F9D: 8D 0A          bsr      0x2FA9
2F9F: C6 0A          ldb      #0A
2FA1: 6F A2          clr      ,-y
2FA3: 5A             decb     
2FA4: 26 FB          bne      0x2FA1
2FA6: 39             rts      

2FA7: 8D 15          bsr      0x2FBE
2FA9: AE A4          ldx      ,y
2FAB: 27 04          beq      0x2FB1
2FAD: A6 22          lda      0x02,y
2FAF: A7 84          sta      ,x
2FB1: 31 25          leay     0x05,y
2FB3: 5A             decb     
2FB4: 26 F3          bne      0x2FA9
2FB6: 39             rts      

2FB7: C6 02          ldb      #02
2FB9: 31 8D CB 86    leay     0xCB86,pc ; (0xFB43)
2FBD: 39             rts      

2FBE: C6 08          ldb      #08
2FC0: 31 8D CB 89    leay     0xCB89,pc ; (0xFB4D)
2FC4: 39             rts      

2FC5: 8D 13          bsr      0x2FDA
2FC7: A7 84          sta      ,x
2FC9: A1 84          cmpa     ,x
2FCB: 26 35          bne      0x3002
2FCD: 86 3F          lda      #3F
2FCF: A7 84          sta      ,x
2FD1: A1 84          cmpa     ,x
2FD3: 26 2D          bne      0x3002
2FD5: EF 23          stu      0x03,y
2FD7: 39             rts      

2FD8: 8B 02          adda     #02
2FDA: 8D DB          bsr      0x2FB7
2FDC: C6 05          ldb      #05
2FDE: 3D             mul      
2FDF: 31 A5          leay     b,y
2FE1: AF A4          stx      ,y
2FE3: A6 84          lda      ,x
2FE5: A7 22          sta      0x02,y
2FE7: CC 00 01       ldd      #0x01
2FEA: ED 23          std      0x03,y
2FEC: 39             rts      

2FED: 8D CF          bsr      0x2FBE
2FEF: AE A4          ldx      ,y
2FF1: 27 08          beq      0x2FFB
2FF3: A6 84          lda      ,x
2FF5: A7 22          sta      0x02,y
2FF7: 86 3F          lda      #3F
2FF9: A7 84          sta      ,x
2FFB: 31 25          leay     0x05,y
2FFD: 5A             decb     
2FFE: 26 EF          bne      0x2FEF
3000: 20 29          bra      0x302B

3002: 8D 97          bsr      0x2F9B
3004: C6 27          ldb      #27
3006: 16 FA D8       lbra     0x2AE1

3009: 10 9E 41       ldy      0x41
300C: 86 3F          lda      #3F
300E: A1 A4          cmpa     ,y
3010: 27 F2          beq      0x3004
3012: 8D 35          bsr      0x3049
3014: DE 41          ldu      0x41
3016: 1F 21          tfr      y,x
3018: 4F             clra     
3019: 8D AA          bsr      0x2FC5
301B: 0D 1F          tst      0x1F
301D: 27 0C          beq      0x302B
301F: 2B E1          bmi      0x3002
3021: 9C 24          cpx      0x24
3023: 27 06          beq      0x302B
3025: 9E 24          ldx      0x24
3027: 86 01          lda      #01
3029: 8D 9A          bsr      0x2FC5
302B: 96 32          lda      0x32
302D: B7 01 8E       sta      0x018E
3030: 9E 33          ldx      0x33
3032: BF 01 8F       stx      0x018F
3035: 10 9E 3B       ldy      0x3B
3038: DE 3D          ldu      0x3D
303A: 10 DE 3F       lds      0x3F
303D: DC 35          ldd      0x35
303F: 9E 41          ldx      0x41
3041: 34 16          pshs     x,b,a
3043: 9E 39          ldx      0x39
3045: DC 37          ldd      0x37
3047: 35 89          puls     cc,dp,pc ;(pul? pc=rts)

3049: C6 FF          ldb      #FF
304B: D7 00          stb      0x00
304D: 8D 05          bsr      0x3054
304F: C6 01          ldb      #01
3051: D7 00          stb      0x00
3053: 39             rts      

3054: 0F 1F          clr      0x1F
3056: 0F 2E          clr      0x2E
3058: 0F 1E          clr      0x1E
305A: 1F 23          tfr      y,u
305C: A6 A0          lda      ,y+
305E: 81 10          cmpa     #10
3060: 10 27 00 E7    lbeq     0x314B
3064: 81 11          cmpa     #11
3066: 10 27 00 F8    lbeq     0x3162
306A: 30 8C 31       leax     0x31,pc ; (0x309E)
306D: E6 80          ldb      ,x+
306F: 27 06          beq      0x3077
3071: E1 3F          cmpb     -0x01,y
3073: 26 F8          bne      0x306D
3075: 0C 1F          inc      0x1F
3077: 81 80          cmpa     #80
3079: 25 2A          bcs      0x30A5
307B: C6 5E          ldb      #5E
307D: 81 8D          cmpa     #8D
307F: 27 36          beq      0x30B7
3081: 81 CD          cmpa     #CD
3083: 27 2E          beq      0x30B3
3085: 84 3F          anda     #3F
3087: 81 07          cmpa     #07
3089: 27 28          beq      0x30B3
308B: 81 0F          cmpa     #0F
308D: 27 24          beq      0x30B3
308F: E6 3F          ldb      -0x01,y
3091: C5 40          bitb     #40
3093: 27 03          beq      0x3098
3095: CA 10          orb      #10
3097: 8C C4 0F       cmpx     #0xC40F
309A: C4 1F          andb     #1F
309C: 20 19          bra      0x30B7

309E: 0E 6E          jmp      0x6E

30A0: 7E 9D AD       jmp      0x9DAD

30A3: BD 00 81       jsr      0x0081
30A6: 60 25          neg      0x05,y
30A8: 02             Illegal Opcode, changing to data
30A9: 84 0F          anda     #0F
30AB: 30 8D 03 3F    leax     0x033F,pc ; (0x33EE)
30AF: E6 86          ldb      a,x
30B1: C1 FF          cmpb     #FF
30B3: 10 27 00 C4    lbeq     0x317B
30B7: 8D 71          bsr      0x312A
30B9: A6 3F          lda      -0x01,y
30BB: C6 10          ldb      #10
30BD: 3D             mul      
30BE: 30 8C 39       leax     0x39,pc ; (0x30FA)
30C1: E6 86          ldb      a,x
30C3: 2A 16          bpl      0x30DB
30C5: E6 3F          ldb      -0x01,y
30C7: C4 0F          andb     #0F
30C9: EA 86          orb      a,x
30CB: C4 7F          andb     #7F
30CD: 54             lsrb     
30CE: 30 8C 39       leax     0x39,pc ; (0x310A)
30D1: E6 85          ldb      b,x
30D3: 25 04          bcs      0x30D9
30D5: 54             lsrb     
30D6: 54             lsrb     
30D7: 54             lsrb     
30D8: 54             lsrb     
30D9: C4 0F          andb     #0F
30DB: 30 8C 0C       leax     0x0C,pc ; (0x30EA)
30DE: E6 85          ldb      b,x
30E0: 4F             clra     
30E1: 30 8D 00 F5    leax     0x00F5,pc ; (0x31DA)
30E5: AD 8B          jsr      d,x
30E7: DF 24          stu      0x24
30E9: 39             rts      

30EA: 00 2D          neg      0x2D
30EC: 31 3C          leay     -0x04,y
30EE: 43             coma     
30EF: 4F             clra     
30F0: 56             rorb     
30F1: 60 63          neg      0x03,s
30F3: 98 A9          eora     0x00A9
30F5: E7 01          stb      0x01,x
30F7: 06 13          ror      0x13
30F9: 1A 04          orcc     #04
30FB: 80 05          suba     #05
30FD: 90 00          suba     0x00
30FF: 00 0B          neg      0x0B
3101: 03 A0          com      0x00A0
3103: 04 0B          lsr      0x0B
3105: 03 B0          com      0x00B0
3107: 04 0B          lsr      0x0B
3109: 03 00          com      0x00
310B: 00 00          neg      0x00
310D: 66 00          ror      0x00,x
310F: C0 C0          subb     #C0
3111: 78 BB BB       asl      0xBBBB
3114: 9A 9A          ora      0x009A
3116: 0E 0D          jmp      0x0D

3118: C0 0F          subb     #0F
311A: 11 12          Illegal Opcode, changing to data
311C: 11 11          Illegal Opcode, changing to data
311E: 11 11          Illegal Opcode, changing to data
3120: 25 20          bcs      0x3142
3122: 11 12          Illegal Opcode, changing to data
3124: 11 11          Illegal Opcode, changing to data
3126: 11 11          Illegal Opcode, changing to data
3128: 20 20          bra      0x314A

312A: 30 8D D3 09    leax     0xD309,pc ; (0x10437)
312E: 5D             tstb     
312F: 27 0B          beq      0x313C
3131: 30 01          leax     0x01,x
3133: 6D 80          tst      ,x+
3135: 2A FC          bpl      0x3133
3137: 30 01          leax     0x01,x
3139: 5A             decb     
313A: 26 F5          bne      0x3131
313C: 17 D0 F2       lbsr     0x0231
313F: 16 D1 1B       lbra     0x025D

3142: E6 1F          ldb      -0x01,x
3144: EB E0          addb     ,s+
3146: 0A 2E          dec      0x2E
3148: 16 FF 6C       lbra     0x30B7

314B: E6 A0          ldb      ,y+
314D: 86 17          lda      #17
314F: C1 2F          cmpb     #2F
3151: 22 18          bhi      0x316B
3153: C1 21          cmpb     #21
3155: 25 14          bcs      0x316B
3157: C4 0F          andb     #0F
3159: CB 62          addb     #62
315B: 8D CD          bsr      0x312A
315D: C6 06          ldb      #06
315F: 16 FF 79       lbra     0x30DB

3162: E6 A0          ldb      ,y+
3164: 86 07          lda      #07
3166: 34 02          pshs     a
3168: 86 09          lda      #09
316A: 8C 6F E2       cmpx     #0x6FE2
316D: 30 8C 16       leax     0x16,pc ; (0x3186)
3170: E1 81          cmpb     ,x++
3172: 27 CE          beq      0x3142
3174: 4A             deca     
3175: 26 F9          bne      0x3170
3177: 32 61          leas     0x01,s
3179: 31 3F          leay     -0x01,y
317B: 86 FF          lda      #FF
317D: 97 1F          sta      0x1F
317F: 8D 00          bsr      0x3181
3181: 86 3F          lda      #3F
3183: 16 D0 E0       lbra     0x0266

3186: 3F             swi      
3187: 81 83          cmpa     #83
3189: 82 8C          sbca     #8C
318B: 83 93 82       subd     #0x9382
318E: 9C 83          cpx      0x0083
3190: A3 82          subd     ,-x
3192: AC 83          cpx      ,--x
3194: B3 82 BC       subd     0x82BC
3197: 83 8E 84       subd     #0x8E84
319A: 9E 84          ldx      0x0084
319C: 9F 85          stx      0x0085
319E: AE 84          ldx      ,x
31A0: AF 85          stx      b,x
31A2: BE 84 BF       ldx      0x84BF
31A5: 85 CE          bita     #CE
31A7: 86 DE          lda      #DE
31A9: 86 DF          lda      #DF
31AB: 87             Illegal Opcode, changing to data
31AC: EE 86          ldu      a,x
31AE: EF 87          stu      
31B0: FE 86 FF       ldu      0x86FF
31B3: 87             Illegal Opcode, changing to data
31B4: A6 A4          lda      ,y
31B6: C6 10          ldb      #10
31B8: 3D             mul      
31B9: 34 04          pshs     b
31BB: AA E0          ora      ,s+
31BD: 8C A6 A4       cmpx     #0xA6A4
31C0: C6 10          ldb      #10
31C2: 3D             mul      
31C3: C1 50          cmpb     #50
31C5: 26 0F          bne      0x31D6
31C7: 81 05          cmpa     #05
31C9: 27 0B          beq      0x31D6
31CB: 22 0A          bhi      0x31D7
31CD: 48             asla     
31CE: 30 8D C9 65    leax     0xC965,pc ; (0xFB37)
31D2: EE 86          ldu      a,x
31D4: 0C 1F          inc      0x1F
31D6: 39             rts      

31D7: 0A 1F          dec      0x1F
31D9: 39             rts      

31DA: 39             rts      

31DB: 8D 2A          bsr      0x3207
31DD: 16 F9 DB       lbra     0x2BBB

31E0: 9E 3F          ldx      0x3F
31E2: E6 84          ldb      ,x
31E4: 30 01          leax     0x01,x
31E6: C5 80          bitb     #80
31E8: 27 05          beq      0x31EF
31EA: 30 09          leax     0x09,x
31EC: 8C 9E 3F       cmpx     #0x9E3F
31EF: EE 84          ldu      ,x
31F1: 0C 1F          inc      0x1F
31F3: 39             rts      

31F4: 8E FF FA       ldx      #0xFFFA
31F7: 0D 2E          tst      0x2E
31F9: 27 F4          beq      0x31EF
31FB: 30 1A          leax     -0x06,x
31FD: A6 3E          lda      -0x02,y
31FF: 81 10          cmpa     #10
3201: 27 EC          beq      0x31EF
3203: 30 1E          leax     -0x02,x
3205: 20 E8          bra      0x31EF

3207: E6 A0          ldb      ,y+
3209: 4F             clra     
320A: 8C EC A1       cmpx     #0xECA1
320D: 34 06          pshs     b,a
320F: 17 01 1D       lbsr     0x332F
3212: 35 06          puls     a,b
3214: 20 10          bra      0x3226

3216: 17 01 AA       lbsr     0x33C3
3219: EC A1          ldd      ,y++
321B: 20 07          bra      0x3224

321D: 17 01 A6       lbsr     0x33C6
3220: E6 A0          ldb      ,y+
3222: 96 36          lda      0x36
3224: 1F 03          tfr      d,u
3226: 16 FC 58       lbra     0x2E81

3229: 0C 1F          inc      0x1F
322B: E6 A0          ldb      ,y+
322D: 1D             sex      
322E: 20 04          bra      0x3234

3230: 0C 1F          inc      0x1F
3232: EC A1          ldd      ,y++
3234: 33 AB          leau     d,y
3236: 1F 30          tfr      u,d
3238: 20 EC          bra      0x3226

323A: 17 FF 77       lbsr     0x31B4
323D: 17 FF 7E       lbsr     0x31BE
3240: A6 A0          lda      ,y+
3242: 44             lsra     
3243: 44             lsra     
3244: 44             lsra     
3245: 44             lsra     
3246: 8D 04          bsr      0x324C
3248: A6 3F          lda      -0x01,y
324A: 84 0F          anda     #0F
324C: 48             asla     
324D: 30 8D 01 FD    leax     0x01FD,pc ; (0x344E)
3251: 30 86          leax     a,x
3253: 34 13          pshs     x,a,cc
3255: C5 08          bitb     #08
3257: 27 03          beq      0x325C
3259: 17 00 D6       lbsr     0x3332
325C: CA 08          orb      #08
325E: A6 80          lda      ,x+
3260: C5 02          bitb     #02
3262: 27 06          beq      0x326A
3264: 81 D5          cmpa     #D5
3266: 26 02          bne      0x326A
3268: 86 D3          lda      #D3
326A: 17 CF F9       lbsr     0x0266
326D: 4D             tsta     
326E: 2A EE          bpl      0x325E
3270: 35 93          puls     cc,a,x,pc ;(pul? pc=rts)

3272: E6 3F          ldb      -0x01,y
3274: 30 8C 3A       leax     0x3A,pc ; (0x32B1)
3277: A6 A0          lda      ,y+
3279: 2A 02          bpl      0x327D
327B: 8D D6          bsr      0x3253
327D: 30 02          leax     0x02,x
327F: 48             asla     
3280: 26 F7          bne      0x3279
3282: 39             rts      

3283: A6 A4          lda      ,y
3285: 48             asla     
3286: 24 18          bcc      0x32A0
3288: 8E 00 03       ldx      #0x03
328B: 5F             clrb     
328C: 48             asla     
328D: C9 00          adcb     #00
328F: 30 1F          leax     -0x01,x
3291: 26 F9          bne      0x328C
3293: 58             aslb     
3294: 48             asla     
3295: C9 00          adcb     #00
3297: 4D             tsta     
3298: 26 FA          bne      0x3294
329A: DE 3F          ldu      0x3F
329C: EE C5          ldu      b,u
329E: 0C 1F          inc      0x1F
32A0: E6 3F          ldb      -0x01,y
32A2: 30 8C 1C       leax     0x1C,pc ; (0x32C1)
32A5: A6 A0          lda      ,y+
32A7: 30 1E          leax     -0x02,x
32A9: 44             lsra     
32AA: 24 02          bcc      0x32AE
32AC: 8D A5          bsr      0x3253
32AE: 26 F7          bne      0x32A7
32B0: 39             rts      

32B1: 50             negb     
32B2: C3 D5 00       addd     #0xD500
32B5: D9 00          adcb     0x00
32B7: D8 00          eorb     0x00
32B9: 44             lsra     
32BA: D0 C2          subb     0x00C2
32BC: 00 C1          neg      0x00C1
32BE: 00 43          neg      0x43
32C0: C3 E6 A0       addd     #0xE6A0
32C3: C5 80          bitb     #80
32C5: 27 3A          beq      0x3301
32C7: 30 8C 44       leax     0x44,pc ; (0x330E)
32CA: C4 0F          andb     #0F
32CC: E6 85          ldb      b,x
32CE: 30 8C 4D       leax     0x4D,pc ; (0x331E)
32D1: 3A             abx      
32D2: E6 3F          ldb      -0x01,y
32D4: C5 10          bitb     #10
32D6: 27 27          beq      0x32FF
32D8: 96 1F          lda      0x1F
32DA: D6 00          ldb      0x00
32DC: 34 76          pshs     u,y,x,b,a
32DE: 86 FF          lda      #FF
32E0: 97 00          sta      0x00
32E2: 8D 1B          bsr      0x32FF
32E4: 35 76          puls     a,b,x,y,u
32E6: 97 1F          sta      0x1F
32E8: D7 00          stb      0x00
32EA: E6 3F          ldb      -0x01,y
32EC: 96 1E          lda      0x1E
32EE: 27 07          beq      0x32F7
32F0: 17 CF 73       lbsr     0x0266
32F3: 86 FF          lda      #FF
32F5: 97 1E          sta      0x1E
32F7: 8D 30          bsr      0x3329
32F9: 8D 04          bsr      0x32FF
32FB: EE C4          ldu      ,u
32FD: 20 2D          bra      0x332C

32FF: 1F 15          tfr      x,pc
3301: 1F 01          tfr      d,x
3303: C4 1F          andb     #1F
3305: C5 10          bitb     #10
3307: 27 02          beq      0x330B
3309: CA E0          orb      #E0
330B: 16 00 7C       lbra     0x338A

330E: 00 22          neg      0x22
3310: 26 2D          bne      0x333F
3312: 89 43          adca     #43
3314: 4C             inca     
3315: CD             Illegal Opcode, changing to data
3316: 66 6F          ror      0x0F,s
3318: CD             Illegal Opcode, changing to data
3319: 55             Illegal Opcode, changing to data
331A: B3 BA CD       subd     0xBACD
331D: C9 26          adcb     #26
331F: 24 17          bcc      0x3338
3321: 00 84          neg      0x0084
3323: 86 2B          lda      #2B
3325: 8C 86 2D       cmpx     #0x862D
3328: 8C 86 5B       cmpx     #0x865B
332B: 8C 86 5D       cmpx     #0x865D
332E: 8C 86 23       cmpx     #0x8623
3331: 8C 86 2C       cmpx     #0x862C
3334: 8C 86 54       cmpx     #0x8654
3337: 8C 86 3D       cmpx     #0x863D
333A: 8C 86 2F       cmpx     #0x862F
333D: 16 CF 26       lbra     0x0266

3340: 8D DE          bsr      0x3320
3342: 20 DF          bra      0x3323

3344: 10 26 00 A3    lbne     0x33EB
3348: 86 FF          lda      #FF
334A: 8C 86 FE       cmpx     #0x86FE
334D: 34 02          pshs     a
334F: 8D E1          bsr      0x3332
3351: 8D D3          bsr      0x3326
3353: A6 E4          lda      ,s
3355: 4C             inca     
3356: 27 02          beq      0x335A
3358: 8D CC          bsr      0x3326
335A: 8D 4D          bsr      0x33A9
335C: 35 04          puls     b
335E: 33 C5          leau     b,u
3360: 39             rts      

3361: D6 38          ldb      0x38
3363: 1D             sex      
3364: 34 06          pshs     b,a
3366: 86 42          lda      #42
3368: 20 0F          bra      0x3379

336A: D6 37          ldb      0x37
336C: 1D             sex      
336D: 34 06          pshs     b,a
336F: 86 41          lda      #41
3371: 20 06          bra      0x3379

3373: DC 37          ldd      0x37
3375: 34 06          pshs     b,a
3377: 86 44          lda      #44
3379: 8D C2          bsr      0x333D
337B: E6 3F          ldb      -0x01,y
337D: 8D 28          bsr      0x33A7
337F: 35 06          puls     a,b
3381: 33 CB          leau     d,u
3383: 39             rts      

3384: 1F 01          tfr      d,x
3386: 8D 3E          bsr      0x33C6
3388: E6 A0          ldb      ,y+
338A: 1D             sex      
338B: 20 06          bra      0x3393

338D: 1F 01          tfr      d,x
338F: 8D 32          bsr      0x33C3
3391: EC A1          ldd      ,y++
3393: 34 06          pshs     b,a
3395: 2A 09          bpl      0x33A0
3397: 8D 8D          bsr      0x3326
3399: EC E4          ldd      ,s
339B: 43             coma     
339C: 53             comb     
339D: C3 00 01       addd     #0x01
33A0: 17 FA DE       lbsr     0x2E81
33A3: 1F 10          tfr      x,d
33A5: 20 D6          bra      0x337D

33A7: 8D 89          bsr      0x3332
33A9: 54             lsrb     
33AA: 54             lsrb     
33AB: 54             lsrb     
33AC: 54             lsrb     
33AD: C4 06          andb     #06
33AF: 30 8D C7 86    leax     0xC786,pc ; (0xFB39)
33B3: EE 85          ldu      b,x
33B5: 30 8C 07       leax     0x07,pc ; (0x33BF)
33B8: 54             lsrb     
33B9: A6 85          lda      b,x
33BB: 16 FF 7F       lbra     0x333D

33BE: 44             lsra     
33BF: 58             aslb     
33C0: 59             rolb     
33C1: 55             Illegal Opcode, changing to data
33C2: 53             comb     
33C3: 86 3E          lda      #3E
33C5: 8C 86 3C       cmpx     #0x863C
33C8: 0D 1E          tst      0x1E
33CA: 2B B7          bmi      0x3383
33CC: 97 1E          sta      0x1E
33CE: 16 CE 95       lbra     0x0266

33D1: 8D F3          bsr      0x33C6
33D3: 17 FE 55       lbsr     0x322B
33D6: 20 05          bra      0x33DD

33D8: 8D E9          bsr      0x33C3
33DA: 17 FE 55       lbsr     0x3232
33DD: 30 8C 03       leax     0x03,pc ; (0x33E3)
33E0: 16 CE 38       lbra     0x021B

33E3: 2C 50          bge      0x3435
33E5: 43             coma     
33E6: D2 10          sbcb     0x10
33E8: 26 FE          bne      0x33E8
33EA: 2B 16          bmi      0x3402
33EC: FD 8B 20       std      0x8B20
33EF: FF FF 21       stu      0xFF21
33F2: 22 FF          bhi      0x33F3
33F4: 23 24          bls      0x341A
33F6: 25 27          bcs      0x341F
33F8: 28 FF          bvc      0x33F9
33FA: 29 2A          bvs      0x3426
33FC: 2B 2C          bmi      0x342A
33FE: 00 00          neg      0x00
3400: 4D             tsta     
3401: 4C             inca     
3402: FF FF 61       stu      0xFF61
3405: 62             Illegal Opcode, changing to data
3406: FF 4B 74       stu      0x4B74
3409: FF 75 4A       stu      0x754A
340C: 7B             Illegal Opcode, changing to data
340D: 7C 4E 4F       inc      0x4E4F
3410: 50             negb     
3411: 51             Illegal Opcode, changing to data
3412: 52             Illegal Opcode, changing to data
3413: 53             comb     
3414: 54             lsrb     
3415: 55             Illegal Opcode, changing to data
3416: 56             rorb     
3417: 57             asrb     
3418: 58             aslb     
3419: 59             rolb     
341A: 5A             decb     
341B: 5B             Illegal Opcode, changing to data
341C: 5C             incb     
341D: 5D             tstb     
341E: 77 78 79       asr      0x7879
3421: 7A 7D 7E       dec      0x7D7E
3424: 7F 80 FF       clr      0x80FF
3427: 49             rola     
3428: 48             asla     
3429: 47             asra     
342A: 76 46 FF       ror      0x46FF
342D: 45             Illegal Opcode, changing to data
342E: 2D FF          blt      0x342F
3430: FF 2E 2F       stu      0x2E2F
3433: FF 30 31       stu      0x3031
3436: 32 34          leas     -0x0C,y
3438: 35 FF          puls     cc,a,b,dp,x,y,u,pc ;(pul? pc=rts)

343A: 36 37          pshu     y,x,b,a,cc
343C: FF 38 39       stu      0x3839
343F: FF FF 3A       stu      0xFF3A
3442: 3B             rti      

3443: FF 3C 3D       stu      0x3C3D
3446: 3E             Illegal Opcode, changing to data
3447: 40             nega     
3448: 41             Illegal Opcode, changing to data
3449: FF 42 43       stu      0x4243
344C: FF 44 C4       stu      0x44C4
344F: 00 D8          neg      0x00D8
3451: 00 D9          neg      0x00D9
3453: 00 D5          neg      0x00D5
3455: 00 D3          neg      0x00D3
3457: 00 50          neg      0x50
3459: C3 BF 00       addd     #0xBF00
345C: BF 00 C1       stx      0x00C1
345F: 00 C2          neg      0x00C2
3461: 00 43          neg      0x43
3463: C3 44 D0       addd     #0x44D0
3466: BF 00 BF       stx      0x00BF
3469: 00 BF          neg      0x00BF
346B: 00 BF          neg      0x00BF
346D: 00 00          neg      0x00
346F: 00 00          neg      0x00
3471: 00 00          neg      0x00
3473: 00 00          neg      0x00
3475: 00 00          neg      0x00
3477: 00 00          neg      0x00
3479: 00 00          neg      0x00
347B: 00 00          neg      0x00
347D: 00 00          neg      0x00
347F: 00 FFFFFFFF    neg      0x00FF
